
ctarget:     file format elf64-x86-64


Disassembly of section .init:

0000000000000ee8 <_init>:
 ee8:	48 83 ec 08          	sub    $0x8,%rsp
 eec:	48 8b 05 65 40 20 00 	mov    0x204065(%rip),%rax        # 204f58 <_GLOBAL_OFFSET_TABLE_+0xa8>
 ef3:	48 85 c0             	test   %rax,%rax
 ef6:	74 02                	je     efa <_init+0x12>
 ef8:	ff d0                	callq  *%rax
 efa:	48 83 c4 08          	add    $0x8,%rsp
 efe:	c3                   	retq   

Disassembly of section .plt:

0000000000000f00 <.plt>:
 f00:	ff 35 b2 3f 20 00    	pushq  0x203fb2(%rip)        # 204eb8 <_GLOBAL_OFFSET_TABLE_+0x8>
 f06:	ff 25 b4 3f 20 00    	jmpq   *0x203fb4(%rip)        # 204ec0 <_GLOBAL_OFFSET_TABLE_+0x10>
 f0c:	0f 1f 40 00          	nopl   0x0(%rax)

Disassembly of section .plt.got:

0000000000000f10 <.plt.got>:
     f10:	ff 25 b2 3f 20 00    	jmpq   *0x203fb2(%rip)        # 204ec8 <_GLOBAL_OFFSET_TABLE_+0x18>
     f16:	66 90                	xchg   %ax,%ax
     f18:	ff 25 b2 3f 20 00    	jmpq   *0x203fb2(%rip)        # 204ed0 <_GLOBAL_OFFSET_TABLE_+0x20>
     f1e:	66 90                	xchg   %ax,%ax
     f20:	ff 25 b2 3f 20 00    	jmpq   *0x203fb2(%rip)        # 204ed8 <_GLOBAL_OFFSET_TABLE_+0x28>
     f26:	66 90                	xchg   %ax,%ax
     f28:	ff 25 b2 3f 20 00    	jmpq   *0x203fb2(%rip)        # 204ee0 <_GLOBAL_OFFSET_TABLE_+0x30>
     f2e:	66 90                	xchg   %ax,%ax
     f30:	ff 25 ba 3f 20 00    	jmpq   *0x203fba(%rip)        # 204ef0 <_GLOBAL_OFFSET_TABLE_+0x40>
     f36:	66 90                	xchg   %ax,%ax
     f38:	ff 25 ba 3f 20 00    	jmpq   *0x203fba(%rip)        # 204ef8 <_GLOBAL_OFFSET_TABLE_+0x48>
     f3e:	66 90                	xchg   %ax,%ax
     f40:	ff 25 ba 3f 20 00    	jmpq   *0x203fba(%rip)        # 204f00 <_GLOBAL_OFFSET_TABLE_+0x50>
     f46:	66 90                	xchg   %ax,%ax
     f48:	ff 25 ba 3f 20 00    	jmpq   *0x203fba(%rip)        # 204f08 <_GLOBAL_OFFSET_TABLE_+0x58>
     f4e:	66 90                	xchg   %ax,%ax
     f50:	ff 25 ba 3f 20 00    	jmpq   *0x203fba(%rip)        # 204f10 <_GLOBAL_OFFSET_TABLE_+0x60>
     f56:	66 90                	xchg   %ax,%ax
     f58:	ff 25 ba 3f 20 00    	jmpq   *0x203fba(%rip)        # 204f18 <_GLOBAL_OFFSET_TABLE_+0x68>
     f5e:	66 90                	xchg   %ax,%ax
     f60:	ff 25 ba 3f 20 00    	jmpq   *0x203fba(%rip)        # 204f20 <_GLOBAL_OFFSET_TABLE_+0x70>
     f66:	66 90                	xchg   %ax,%ax
     f68:	ff 25 ba 3f 20 00    	jmpq   *0x203fba(%rip)        # 204f28 <_GLOBAL_OFFSET_TABLE_+0x78>
     f6e:	66 90                	xchg   %ax,%ax
     f70:	ff 25 ba 3f 20 00    	jmpq   *0x203fba(%rip)        # 204f30 <_GLOBAL_OFFSET_TABLE_+0x80>
     f76:	66 90                	xchg   %ax,%ax
     f78:	ff 25 c2 3f 20 00    	jmpq   *0x203fc2(%rip)        # 204f40 <_GLOBAL_OFFSET_TABLE_+0x90>
     f7e:	66 90                	xchg   %ax,%ax
     f80:	ff 25 c2 3f 20 00    	jmpq   *0x203fc2(%rip)        # 204f48 <_GLOBAL_OFFSET_TABLE_+0x98>
     f86:	66 90                	xchg   %ax,%ax
     f88:	ff 25 c2 3f 20 00    	jmpq   *0x203fc2(%rip)        # 204f50 <_GLOBAL_OFFSET_TABLE_+0xa0>
     f8e:	66 90                	xchg   %ax,%ax
     f90:	ff 25 ca 3f 20 00    	jmpq   *0x203fca(%rip)        # 204f60 <_GLOBAL_OFFSET_TABLE_+0xb0>
     f96:	66 90                	xchg   %ax,%ax
     f98:	ff 25 ca 3f 20 00    	jmpq   *0x203fca(%rip)        # 204f68 <_GLOBAL_OFFSET_TABLE_+0xb8>
     f9e:	66 90                	xchg   %ax,%ax
     fa0:	ff 25 ca 3f 20 00    	jmpq   *0x203fca(%rip)        # 204f70 <_GLOBAL_OFFSET_TABLE_+0xc0>
     fa6:	66 90                	xchg   %ax,%ax
     fa8:	ff 25 ca 3f 20 00    	jmpq   *0x203fca(%rip)        # 204f78 <_GLOBAL_OFFSET_TABLE_+0xc8>
     fae:	66 90                	xchg   %ax,%ax
     fb0:	ff 25 ca 3f 20 00    	jmpq   *0x203fca(%rip)        # 204f80 <_GLOBAL_OFFSET_TABLE_+0xd0>
     fb6:	66 90                	xchg   %ax,%ax
     fb8:	ff 25 ca 3f 20 00    	jmpq   *0x203fca(%rip)        # 204f88 <_GLOBAL_OFFSET_TABLE_+0xd8>
     fbe:	66 90                	xchg   %ax,%ax
     fc0:	ff 25 ca 3f 20 00    	jmpq   *0x203fca(%rip)        # 204f90 <_GLOBAL_OFFSET_TABLE_+0xe0>
     fc6:	66 90                	xchg   %ax,%ax
     fc8:	ff 25 ca 3f 20 00    	jmpq   *0x203fca(%rip)        # 204f98 <_GLOBAL_OFFSET_TABLE_+0xe8>
     fce:	66 90                	xchg   %ax,%ax
     fd0:	ff 25 ca 3f 20 00    	jmpq   *0x203fca(%rip)        # 204fa0 <_GLOBAL_OFFSET_TABLE_+0xf0>
     fd6:	66 90                	xchg   %ax,%ax
     fd8:	ff 25 d2 3f 20 00    	jmpq   *0x203fd2(%rip)        # 204fb0 <_GLOBAL_OFFSET_TABLE_+0x100>
     fde:	66 90                	xchg   %ax,%ax
     fe0:	ff 25 d2 3f 20 00    	jmpq   *0x203fd2(%rip)        # 204fb8 <_GLOBAL_OFFSET_TABLE_+0x108>
     fe6:	66 90                	xchg   %ax,%ax
     fe8:	ff 25 d2 3f 20 00    	jmpq   *0x203fd2(%rip)        # 204fc0 <_GLOBAL_OFFSET_TABLE_+0x110>
     fee:	66 90                	xchg   %ax,%ax
     ff0:	ff 25 d2 3f 20 00    	jmpq   *0x203fd2(%rip)        # 204fc8 <_GLOBAL_OFFSET_TABLE_+0x118>
     ff6:	66 90                	xchg   %ax,%ax
     ff8:	ff 25 d2 3f 20 00    	jmpq   *0x203fd2(%rip)        # 204fd0 <_GLOBAL_OFFSET_TABLE_+0x120>
     ffe:	66 90                	xchg   %ax,%ax
    1000:	ff 25 d2 3f 20 00    	jmpq   *0x203fd2(%rip)        # 204fd8 <_GLOBAL_OFFSET_TABLE_+0x128>
    1006:	66 90                	xchg   %ax,%ax
    1008:	ff 25 da 3f 20 00    	jmpq   *0x203fda(%rip)        # 204fe8 <_GLOBAL_OFFSET_TABLE_+0x138>
    100e:	66 90                	xchg   %ax,%ax
    1010:	ff 25 da 3f 20 00    	jmpq   *0x203fda(%rip)        # 204ff0 <_GLOBAL_OFFSET_TABLE_+0x140>
    1016:	66 90                	xchg   %ax,%ax
    1018:	ff 25 da 3f 20 00    	jmpq   *0x203fda(%rip)        # 204ff8 <_GLOBAL_OFFSET_TABLE_+0x148>
    101e:	66 90                	xchg   %ax,%ax

Disassembly of section .text:

0000000000001020 <_start>:
    1020:	31 ed                	xor    %ebp,%ebp
    1022:	49 89 d1             	mov    %rdx,%r9
    1025:	5e                   	pop    %rsi
    1026:	48 89 e2             	mov    %rsp,%rdx
    1029:	48 83 e4 f0          	and    $0xfffffffffffffff0,%rsp
    102d:	50                   	push   %rax
    102e:	54                   	push   %rsp
    102f:	4c 8d 05 4a 20 00 00 	lea    0x204a(%rip),%r8        # 3080 <__libc_csu_fini>
    1036:	48 8d 0d d3 1f 00 00 	lea    0x1fd3(%rip),%rcx        # 3010 <__libc_csu_init>
    103d:	48 8d 3d 33 03 00 00 	lea    0x333(%rip),%rdi        # 1377 <main>
    1044:	ff 15 ee 3e 20 00    	callq  *0x203eee(%rip)        # 204f38 <_GLOBAL_OFFSET_TABLE_+0x88>
    104a:	f4                   	hlt    
    104b:	0f 1f 44 00 00       	nopl   0x0(%rax,%rax,1)

0000000000001050 <deregister_tm_clones>:
    1050:	48 8d 3d 19 43 20 00 	lea    0x204319(%rip),%rdi        # 205370 <__TMC_END__>
    1057:	48 8d 05 19 43 20 00 	lea    0x204319(%rip),%rax        # 205377 <__TMC_END__+0x7>
    105e:	55                   	push   %rbp
    105f:	48 29 f8             	sub    %rdi,%rax
    1062:	48 89 e5             	mov    %rsp,%rbp
    1065:	48 83 f8 0e          	cmp    $0xe,%rax
    1069:	76 15                	jbe    1080 <deregister_tm_clones+0x30>
    106b:	48 8b 05 76 3e 20 00 	mov    0x203e76(%rip),%rax        # 204ee8 <_GLOBAL_OFFSET_TABLE_+0x38>
    1072:	48 85 c0             	test   %rax,%rax
    1075:	74 09                	je     1080 <deregister_tm_clones+0x30>
    1077:	5d                   	pop    %rbp
    1078:	ff e0                	jmpq   *%rax
    107a:	66 0f 1f 44 00 00    	nopw   0x0(%rax,%rax,1)
    1080:	5d                   	pop    %rbp
    1081:	c3                   	retq   
    1082:	0f 1f 40 00          	nopl   0x0(%rax)
    1086:	66 2e 0f 1f 84 00 00 	nopw   %cs:0x0(%rax,%rax,1)
    108d:	00 00 00 

0000000000001090 <register_tm_clones>:
    1090:	48 8d 3d d9 42 20 00 	lea    0x2042d9(%rip),%rdi        # 205370 <__TMC_END__>
    1097:	48 8d 35 d2 42 20 00 	lea    0x2042d2(%rip),%rsi        # 205370 <__TMC_END__>
    109e:	55                   	push   %rbp
    109f:	48 29 fe             	sub    %rdi,%rsi
    10a2:	48 89 e5             	mov    %rsp,%rbp
    10a5:	48 c1 fe 03          	sar    $0x3,%rsi
    10a9:	48 89 f0             	mov    %rsi,%rax
    10ac:	48 c1 e8 3f          	shr    $0x3f,%rax
    10b0:	48 01 c6             	add    %rax,%rsi
    10b3:	48 d1 fe             	sar    %rsi
    10b6:	74 18                	je     10d0 <register_tm_clones+0x40>
    10b8:	48 8b 05 21 3f 20 00 	mov    0x203f21(%rip),%rax        # 204fe0 <_GLOBAL_OFFSET_TABLE_+0x130>
    10bf:	48 85 c0             	test   %rax,%rax
    10c2:	74 0c                	je     10d0 <register_tm_clones+0x40>
    10c4:	5d                   	pop    %rbp
    10c5:	ff e0                	jmpq   *%rax
    10c7:	66 0f 1f 84 00 00 00 	nopw   0x0(%rax,%rax,1)
    10ce:	00 00 
    10d0:	5d                   	pop    %rbp
    10d1:	c3                   	retq   
    10d2:	0f 1f 40 00          	nopl   0x0(%rax)
    10d6:	66 2e 0f 1f 84 00 00 	nopw   %cs:0x0(%rax,%rax,1)
    10dd:	00 00 00 

00000000000010e0 <__do_global_dtors_aux>:
    10e0:	80 3d c1 42 20 00 00 	cmpb   $0x0,0x2042c1(%rip)        # 2053a8 <completed.7558>
    10e7:	75 27                	jne    1110 <__do_global_dtors_aux+0x30>
    10e9:	48 83 3d f7 3e 20 00 	cmpq   $0x0,0x203ef7(%rip)        # 204fe8 <_GLOBAL_OFFSET_TABLE_+0x138>
    10f0:	00 
    10f1:	55                   	push   %rbp
    10f2:	48 89 e5             	mov    %rsp,%rbp
    10f5:	74 0c                	je     1103 <__do_global_dtors_aux+0x23>
    10f7:	48 8b 3d 0a 3f 20 00 	mov    0x203f0a(%rip),%rdi        # 205008 <__dso_handle>
    10fe:	e8 05 ff ff ff       	callq  1008 <_init+0x120>
    1103:	e8 48 ff ff ff       	callq  1050 <deregister_tm_clones>
    1108:	5d                   	pop    %rbp
    1109:	c6 05 98 42 20 00 01 	movb   $0x1,0x204298(%rip)        # 2053a8 <completed.7558>
    1110:	f3 c3                	repz retq 
    1112:	0f 1f 40 00          	nopl   0x0(%rax)
    1116:	66 2e 0f 1f 84 00 00 	nopw   %cs:0x0(%rax,%rax,1)
    111d:	00 00 00 

0000000000001120 <frame_dummy>:
    1120:	48 8d 3d c1 3b 20 00 	lea    0x203bc1(%rip),%rdi        # 204ce8 <__JCR_END__>
    1127:	48 83 3f 00          	cmpq   $0x0,(%rdi)
    112b:	75 0b                	jne    1138 <frame_dummy+0x18>
    112d:	e9 5e ff ff ff       	jmpq   1090 <register_tm_clones>
    1132:	66 0f 1f 44 00 00    	nopw   0x0(%rax,%rax,1)
    1138:	48 8b 05 69 3e 20 00 	mov    0x203e69(%rip),%rax        # 204fa8 <_GLOBAL_OFFSET_TABLE_+0xf8>
    113f:	48 85 c0             	test   %rax,%rax
    1142:	74 e9                	je     112d <frame_dummy+0xd>
    1144:	55                   	push   %rbp
    1145:	48 89 e5             	mov    %rsp,%rbp
    1148:	ff d0                	callq  *%rax
    114a:	5d                   	pop    %rbp
    114b:	e9 40 ff ff ff       	jmpq   1090 <register_tm_clones>

0000000000001150 <usage>:
    1150:	48 83 ec 08          	sub    $0x8,%rsp
    1154:	48 89 fa             	mov    %rdi,%rdx
    1157:	83 3d 8a 42 20 00 00 	cmpl   $0x0,0x20428a(%rip)        # 2053e8 <is_checker>
    115e:	74 50                	je     11b0 <usage+0x60>
    1160:	48 8d 35 31 1f 00 00 	lea    0x1f31(%rip),%rsi        # 3098 <_IO_stdin_used+0x8>
    1167:	bf 01 00 00 00       	mov    $0x1,%edi
    116c:	b8 00 00 00 00       	mov    $0x0,%eax
    1171:	e8 52 fe ff ff       	callq  fc8 <_init+0xe0>
    1176:	48 8d 3d 53 1f 00 00 	lea    0x1f53(%rip),%rdi        # 30d0 <_IO_stdin_used+0x40>
    117d:	e8 b6 fd ff ff       	callq  f38 <_init+0x50>
    1182:	48 8d 3d bf 20 00 00 	lea    0x20bf(%rip),%rdi        # 3248 <_IO_stdin_used+0x1b8>
    1189:	e8 aa fd ff ff       	callq  f38 <_init+0x50>
    118e:	48 8d 3d 63 1f 00 00 	lea    0x1f63(%rip),%rdi        # 30f8 <_IO_stdin_used+0x68>
    1195:	e8 9e fd ff ff       	callq  f38 <_init+0x50>
    119a:	48 8d 3d c1 20 00 00 	lea    0x20c1(%rip),%rdi        # 3262 <_IO_stdin_used+0x1d2>
    11a1:	e8 92 fd ff ff       	callq  f38 <_init+0x50>
    11a6:	bf 00 00 00 00       	mov    $0x0,%edi
    11ab:	e8 40 fe ff ff       	callq  ff0 <_init+0x108>
    11b0:	48 8d 35 c7 20 00 00 	lea    0x20c7(%rip),%rsi        # 327e <_IO_stdin_used+0x1ee>
    11b7:	bf 01 00 00 00       	mov    $0x1,%edi
    11bc:	b8 00 00 00 00       	mov    $0x0,%eax
    11c1:	e8 02 fe ff ff       	callq  fc8 <_init+0xe0>
    11c6:	48 8d 3d 53 1f 00 00 	lea    0x1f53(%rip),%rdi        # 3120 <_IO_stdin_used+0x90>
    11cd:	e8 66 fd ff ff       	callq  f38 <_init+0x50>
    11d2:	48 8d 3d 6f 1f 00 00 	lea    0x1f6f(%rip),%rdi        # 3148 <_IO_stdin_used+0xb8>
    11d9:	e8 5a fd ff ff       	callq  f38 <_init+0x50>
    11de:	48 8d 3d b7 20 00 00 	lea    0x20b7(%rip),%rdi        # 329c <_IO_stdin_used+0x20c>
    11e5:	e8 4e fd ff ff       	callq  f38 <_init+0x50>
    11ea:	eb ba                	jmp    11a6 <usage+0x56>

00000000000011ec <initialize_target>:
    11ec:	55                   	push   %rbp
    11ed:	53                   	push   %rbx
    11ee:	48 81 ec 18 21 00 00 	sub    $0x2118,%rsp
    11f5:	89 f5                	mov    %esi,%ebp
    11f7:	64 48 8b 04 25 28 00 	mov    %fs:0x28,%rax
    11fe:	00 00 
    1200:	48 89 84 24 08 21 00 	mov    %rax,0x2108(%rsp)
    1207:	00 
    1208:	31 c0                	xor    %eax,%eax
    120a:	89 3d c8 41 20 00    	mov    %edi,0x2041c8(%rip)        # 2053d8 <check_level>
    1210:	8b 3d fa 3d 20 00    	mov    0x203dfa(%rip),%edi        # 205010 <target_id>
    1216:	e8 d1 1d 00 00       	callq  2fec <gencookie>
    121b:	89 05 c3 41 20 00    	mov    %eax,0x2041c3(%rip)        # 2053e4 <cookie>
    1221:	89 c7                	mov    %eax,%edi
    1223:	e8 c4 1d 00 00       	callq  2fec <gencookie>
    1228:	89 05 b2 41 20 00    	mov    %eax,0x2041b2(%rip)        # 2053e0 <authkey>
    122e:	8b 05 dc 3d 20 00    	mov    0x203ddc(%rip),%eax        # 205010 <target_id>
    1234:	8d 78 01             	lea    0x1(%rax),%edi
    1237:	e8 e4 fc ff ff       	callq  f20 <_init+0x38>
    123c:	e8 67 fd ff ff       	callq  fa8 <_init+0xc0>
    1241:	89 c7                	mov    %eax,%edi
    1243:	e8 2a 03 00 00       	callq  1572 <scramble>
    1248:	89 c3                	mov    %eax,%ebx
    124a:	85 ed                	test   %ebp,%ebp
    124c:	75 54                	jne    12a2 <initialize_target+0xb6>
    124e:	b8 00 00 00 00       	mov    $0x0,%eax
    1253:	01 d8                	add    %ebx,%eax
    1255:	0f b7 c0             	movzwl %ax,%eax
    1258:	8d 04 c5 00 01 00 00 	lea    0x100(,%rax,8),%eax
    125f:	89 c0                	mov    %eax,%eax
    1261:	48 89 05 f8 40 20 00 	mov    %rax,0x2040f8(%rip)        # 205360 <buf_offset>
    1268:	c6 05 99 4d 20 00 63 	movb   $0x63,0x204d99(%rip)        # 206008 <target_prefix>
    126f:	83 3d f2 40 20 00 00 	cmpl   $0x0,0x2040f2(%rip)        # 205368 <notify>
    1276:	74 09                	je     1281 <initialize_target+0x95>
    1278:	83 3d 69 41 20 00 00 	cmpl   $0x0,0x204169(%rip)        # 2053e8 <is_checker>
    127f:	74 39                	je     12ba <initialize_target+0xce>
    1281:	48 8b 84 24 08 21 00 	mov    0x2108(%rsp),%rax
    1288:	00 
    1289:	64 48 33 04 25 28 00 	xor    %fs:0x28,%rax
    1290:	00 00 
    1292:	0f 85 da 00 00 00    	jne    1372 <initialize_target+0x186>
    1298:	48 81 c4 18 21 00 00 	add    $0x2118,%rsp
    129f:	5b                   	pop    %rbx
    12a0:	5d                   	pop    %rbp
    12a1:	c3                   	retq   
    12a2:	bf 00 00 00 00       	mov    $0x0,%edi
    12a7:	e8 f4 fc ff ff       	callq  fa0 <_init+0xb8>
    12ac:	89 c7                	mov    %eax,%edi
    12ae:	e8 6d fc ff ff       	callq  f20 <_init+0x38>
    12b3:	e8 f0 fc ff ff       	callq  fa8 <_init+0xc0>
    12b8:	eb 99                	jmp    1253 <initialize_target+0x67>
    12ba:	48 89 e7             	mov    %rsp,%rdi
    12bd:	be 00 01 00 00       	mov    $0x100,%esi
    12c2:	e8 21 fd ff ff       	callq  fe8 <_init+0x100>
    12c7:	89 c5                	mov    %eax,%ebp
    12c9:	85 c0                	test   %eax,%eax
    12cb:	75 26                	jne    12f3 <initialize_target+0x107>
    12cd:	89 c3                	mov    %eax,%ebx
    12cf:	48 63 c3             	movslq %ebx,%rax
    12d2:	48 8d 15 67 3d 20 00 	lea    0x203d67(%rip),%rdx        # 205040 <host_table>
    12d9:	48 8b 3c c2          	mov    (%rdx,%rax,8),%rdi
    12dd:	48 85 ff             	test   %rdi,%rdi
    12e0:	74 2c                	je     130e <initialize_target+0x122>
    12e2:	48 89 e6             	mov    %rsp,%rsi
    12e5:	e8 26 fc ff ff       	callq  f10 <_init+0x28>
    12ea:	85 c0                	test   %eax,%eax
    12ec:	74 1b                	je     1309 <initialize_target+0x11d>
    12ee:	83 c3 01             	add    $0x1,%ebx
    12f1:	eb dc                	jmp    12cf <initialize_target+0xe3>
    12f3:	48 8d 3d 7e 1e 00 00 	lea    0x1e7e(%rip),%rdi        # 3178 <_IO_stdin_used+0xe8>
    12fa:	e8 39 fc ff ff       	callq  f38 <_init+0x50>
    12ff:	bf 08 00 00 00       	mov    $0x8,%edi
    1304:	e8 e7 fc ff ff       	callq  ff0 <_init+0x108>
    1309:	bd 01 00 00 00       	mov    $0x1,%ebp
    130e:	85 ed                	test   %ebp,%ebp
    1310:	74 3d                	je     134f <initialize_target+0x163>
    1312:	48 8d bc 24 00 01 00 	lea    0x100(%rsp),%rdi
    1319:	00 
    131a:	e8 1f 1a 00 00       	callq  2d3e <init_driver>
    131f:	85 c0                	test   %eax,%eax
    1321:	0f 89 5a ff ff ff    	jns    1281 <initialize_target+0x95>
    1327:	48 8d 94 24 00 01 00 	lea    0x100(%rsp),%rdx
    132e:	00 
    132f:	48 8d 35 ba 1e 00 00 	lea    0x1eba(%rip),%rsi        # 31f0 <_IO_stdin_used+0x160>
    1336:	bf 01 00 00 00       	mov    $0x1,%edi
    133b:	b8 00 00 00 00       	mov    $0x0,%eax
    1340:	e8 83 fc ff ff       	callq  fc8 <_init+0xe0>
    1345:	bf 08 00 00 00       	mov    $0x8,%edi
    134a:	e8 a1 fc ff ff       	callq  ff0 <_init+0x108>
    134f:	48 89 e2             	mov    %rsp,%rdx
    1352:	48 8d 35 57 1e 00 00 	lea    0x1e57(%rip),%rsi        # 31b0 <_IO_stdin_used+0x120>
    1359:	bf 01 00 00 00       	mov    $0x1,%edi
    135e:	b8 00 00 00 00       	mov    $0x0,%eax
    1363:	e8 60 fc ff ff       	callq  fc8 <_init+0xe0>
    1368:	bf 08 00 00 00       	mov    $0x8,%edi
    136d:	e8 7e fc ff ff       	callq  ff0 <_init+0x108>
    1372:	e8 d1 fb ff ff       	callq  f48 <_init+0x60>

0000000000001377 <main>:
    1377:	41 56                	push   %r14
    1379:	41 55                	push   %r13
    137b:	41 54                	push   %r12
    137d:	55                   	push   %rbp
    137e:	53                   	push   %rbx
    137f:	41 89 fc             	mov    %edi,%r12d
    1382:	48 89 f3             	mov    %rsi,%rbx
    1385:	48 8d 35 92 0c 00 00 	lea    0xc92(%rip),%rsi        # 201e <seghandler>
    138c:	bf 0b 00 00 00       	mov    $0xb,%edi
    1391:	e8 e2 fb ff ff       	callq  f78 <_init+0x90>
    1396:	48 8d 35 2d 0c 00 00 	lea    0xc2d(%rip),%rsi        # 1fca <bushandler>
    139d:	bf 07 00 00 00       	mov    $0x7,%edi
    13a2:	e8 d1 fb ff ff       	callq  f78 <_init+0x90>
    13a7:	48 8d 35 c4 0c 00 00 	lea    0xcc4(%rip),%rsi        # 2072 <illegalhandler>
    13ae:	bf 04 00 00 00       	mov    $0x4,%edi
    13b3:	e8 c0 fb ff ff       	callq  f78 <_init+0x90>
    13b8:	83 3d 29 40 20 00 00 	cmpl   $0x0,0x204029(%rip)        # 2053e8 <is_checker>
    13bf:	75 58                	jne    1419 <main+0xa2>
    13c1:	48 8d 2d ed 1e 00 00 	lea    0x1eed(%rip),%rbp        # 32b5 <_IO_stdin_used+0x225>
    13c8:	48 8b 05 b1 3f 20 00 	mov    0x203fb1(%rip),%rax        # 205380 <stdin@@GLIBC_2.2.5>
    13cf:	48 89 05 fa 3f 20 00 	mov    %rax,0x203ffa(%rip)        # 2053d0 <infile>
    13d6:	41 bd 00 00 00 00    	mov    $0x0,%r13d
    13dc:	41 be 00 00 00 00    	mov    $0x0,%r14d
    13e2:	48 89 ea             	mov    %rbp,%rdx
    13e5:	48 89 de             	mov    %rbx,%rsi
    13e8:	44 89 e7             	mov    %r12d,%edi
    13eb:	e8 e8 fb ff ff       	callq  fd8 <_init+0xf0>
    13f0:	3c ff                	cmp    $0xff,%al
    13f2:	0f 84 02 01 00 00    	je     14fa <main+0x183>
    13f8:	0f be d0             	movsbl %al,%edx
    13fb:	83 e8 61             	sub    $0x61,%eax
    13fe:	3c 10                	cmp    $0x10,%al
    1400:	0f 87 d6 00 00 00    	ja     14dc <main+0x165>
    1406:	0f b6 c0             	movzbl %al,%eax
    1409:	48 8d 0d f0 1e 00 00 	lea    0x1ef0(%rip),%rcx        # 3300 <_IO_stdin_used+0x270>
    1410:	48 63 04 81          	movslq (%rcx,%rax,4),%rax
    1414:	48 01 c8             	add    %rcx,%rax
    1417:	ff e0                	jmpq   *%rax
    1419:	48 8d 35 a6 0c 00 00 	lea    0xca6(%rip),%rsi        # 20c6 <sigalrmhandler>
    1420:	bf 0e 00 00 00       	mov    $0xe,%edi
    1425:	e8 4e fb ff ff       	callq  f78 <_init+0x90>
    142a:	bf 05 00 00 00       	mov    $0x5,%edi
    142f:	e8 2c fb ff ff       	callq  f60 <_init+0x78>
    1434:	48 8d 2d 7f 1e 00 00 	lea    0x1e7f(%rip),%rbp        # 32ba <_IO_stdin_used+0x22a>
    143b:	eb 8b                	jmp    13c8 <main+0x51>
    143d:	48 8b 3b             	mov    (%rbx),%rdi
    1440:	e8 0b fd ff ff       	callq  1150 <usage>
    1445:	48 8d 35 79 21 00 00 	lea    0x2179(%rip),%rsi        # 35c5 <_IO_stdin_used+0x535>
    144c:	48 8b 3d 35 3f 20 00 	mov    0x203f35(%rip),%rdi        # 205388 <optarg@@GLIBC_2.2.5>
    1453:	e8 78 fb ff ff       	callq  fd0 <_init+0xe8>
    1458:	48 89 05 71 3f 20 00 	mov    %rax,0x203f71(%rip)        # 2053d0 <infile>
    145f:	48 85 c0             	test   %rax,%rax
    1462:	0f 85 7a ff ff ff    	jne    13e2 <main+0x6b>
    1468:	48 8b 0d 19 3f 20 00 	mov    0x203f19(%rip),%rcx        # 205388 <optarg@@GLIBC_2.2.5>
    146f:	48 8d 15 4c 1e 00 00 	lea    0x1e4c(%rip),%rdx        # 32c2 <_IO_stdin_used+0x232>
    1476:	be 01 00 00 00       	mov    $0x1,%esi
    147b:	48 8b 3d 1e 3f 20 00 	mov    0x203f1e(%rip),%rdi        # 2053a0 <stderr@@GLIBC_2.2.5>
    1482:	e8 79 fb ff ff       	callq  1000 <_init+0x118>
    1487:	b8 01 00 00 00       	mov    $0x1,%eax
    148c:	e9 d8 00 00 00       	jmpq   1569 <main+0x1f2>
    1491:	ba 10 00 00 00       	mov    $0x10,%edx
    1496:	be 00 00 00 00       	mov    $0x0,%esi
    149b:	48 8b 3d e6 3e 20 00 	mov    0x203ee6(%rip),%rdi        # 205388 <optarg@@GLIBC_2.2.5>
    14a2:	e8 39 fb ff ff       	callq  fe0 <_init+0xf8>
    14a7:	41 89 c6             	mov    %eax,%r14d
    14aa:	e9 33 ff ff ff       	jmpq   13e2 <main+0x6b>
    14af:	ba 0a 00 00 00       	mov    $0xa,%edx
    14b4:	be 00 00 00 00       	mov    $0x0,%esi
    14b9:	48 8b 3d c8 3e 20 00 	mov    0x203ec8(%rip),%rdi        # 205388 <optarg@@GLIBC_2.2.5>
    14c0:	e8 cb fa ff ff       	callq  f90 <_init+0xa8>
    14c5:	41 89 c5             	mov    %eax,%r13d
    14c8:	e9 15 ff ff ff       	jmpq   13e2 <main+0x6b>
    14cd:	c7 05 91 3e 20 00 00 	movl   $0x0,0x203e91(%rip)        # 205368 <notify>
    14d4:	00 00 00 
    14d7:	e9 06 ff ff ff       	jmpq   13e2 <main+0x6b>
    14dc:	48 8d 35 fc 1d 00 00 	lea    0x1dfc(%rip),%rsi        # 32df <_IO_stdin_used+0x24f>
    14e3:	bf 01 00 00 00       	mov    $0x1,%edi
    14e8:	b8 00 00 00 00       	mov    $0x0,%eax
    14ed:	e8 d6 fa ff ff       	callq  fc8 <_init+0xe0>
    14f2:	48 8b 3b             	mov    (%rbx),%rdi
    14f5:	e8 56 fc ff ff       	callq  1150 <usage>
    14fa:	be 00 00 00 00       	mov    $0x0,%esi
    14ff:	44 89 ef             	mov    %r13d,%edi
    1502:	e8 e5 fc ff ff       	callq  11ec <initialize_target>
    1507:	83 3d da 3e 20 00 00 	cmpl   $0x0,0x203eda(%rip)        # 2053e8 <is_checker>
    150e:	74 2c                	je     153c <main+0x1c5>
    1510:	44 3b 35 c9 3e 20 00 	cmp    0x203ec9(%rip),%r14d        # 2053e0 <authkey>
    1517:	74 23                	je     153c <main+0x1c5>
    1519:	44 89 f2             	mov    %r14d,%edx
    151c:	48 8d 35 f5 1c 00 00 	lea    0x1cf5(%rip),%rsi        # 3218 <_IO_stdin_used+0x188>
    1523:	bf 01 00 00 00       	mov    $0x1,%edi
    1528:	b8 00 00 00 00       	mov    $0x0,%eax
    152d:	e8 96 fa ff ff       	callq  fc8 <_init+0xe0>
    1532:	b8 00 00 00 00       	mov    $0x0,%eax
    1537:	e8 ee 06 00 00       	callq  1c2a <check_fail>
    153c:	8b 15 a2 3e 20 00    	mov    0x203ea2(%rip),%edx        # 2053e4 <cookie>
    1542:	48 8d 35 a9 1d 00 00 	lea    0x1da9(%rip),%rsi        # 32f2 <_IO_stdin_used+0x262>
    1549:	bf 01 00 00 00       	mov    $0x1,%edi
    154e:	b8 00 00 00 00       	mov    $0x0,%eax
    1553:	e8 70 fa ff ff       	callq  fc8 <_init+0xe0>
    1558:	48 8b 3d 01 3e 20 00 	mov    0x203e01(%rip),%rdi        # 205360 <buf_offset>
    155f:	e8 6e 0c 00 00       	callq  21d2 <stable_launch>
    1564:	b8 00 00 00 00       	mov    $0x0,%eax
    1569:	5b                   	pop    %rbx
    156a:	5d                   	pop    %rbp
    156b:	41 5c                	pop    %r12
    156d:	41 5d                	pop    %r13
    156f:	41 5e                	pop    %r14
    1571:	c3                   	retq   

0000000000001572 <scramble>:
    1572:	48 83 ec 38          	sub    $0x38,%rsp
    1576:	64 48 8b 04 25 28 00 	mov    %fs:0x28,%rax
    157d:	00 00 
    157f:	48 89 44 24 28       	mov    %rax,0x28(%rsp)
    1584:	31 c0                	xor    %eax,%eax
    1586:	eb 10                	jmp    1598 <scramble+0x26>
    1588:	69 d0 9e c8 00 00    	imul   $0xc89e,%eax,%edx
    158e:	01 fa                	add    %edi,%edx
    1590:	89 c1                	mov    %eax,%ecx
    1592:	89 14 8c             	mov    %edx,(%rsp,%rcx,4)
    1595:	83 c0 01             	add    $0x1,%eax
    1598:	83 f8 09             	cmp    $0x9,%eax
    159b:	76 eb                	jbe    1588 <scramble+0x16>
    159d:	8b 44 24 10          	mov    0x10(%rsp),%eax
    15a1:	69 c0 1e 05 00 00    	imul   $0x51e,%eax,%eax
    15a7:	89 44 24 10          	mov    %eax,0x10(%rsp)
    15ab:	8b 44 24 08          	mov    0x8(%rsp),%eax
    15af:	69 c0 98 ab 00 00    	imul   $0xab98,%eax,%eax
    15b5:	89 44 24 08          	mov    %eax,0x8(%rsp)
    15b9:	8b 44 24 24          	mov    0x24(%rsp),%eax
    15bd:	69 c0 20 b0 00 00    	imul   $0xb020,%eax,%eax
    15c3:	89 44 24 24          	mov    %eax,0x24(%rsp)
    15c7:	8b 44 24 24          	mov    0x24(%rsp),%eax
    15cb:	69 c0 ef f2 00 00    	imul   $0xf2ef,%eax,%eax
    15d1:	89 44 24 24          	mov    %eax,0x24(%rsp)
    15d5:	8b 44 24 1c          	mov    0x1c(%rsp),%eax
    15d9:	69 c0 32 07 00 00    	imul   $0x732,%eax,%eax
    15df:	89 44 24 1c          	mov    %eax,0x1c(%rsp)
    15e3:	8b 44 24 0c          	mov    0xc(%rsp),%eax
    15e7:	69 c0 dc d7 00 00    	imul   $0xd7dc,%eax,%eax
    15ed:	89 44 24 0c          	mov    %eax,0xc(%rsp)
    15f1:	8b 44 24 04          	mov    0x4(%rsp),%eax
    15f5:	69 c0 33 9a 00 00    	imul   $0x9a33,%eax,%eax
    15fb:	89 44 24 04          	mov    %eax,0x4(%rsp)
    15ff:	8b 44 24 04          	mov    0x4(%rsp),%eax
    1603:	69 c0 cf 57 00 00    	imul   $0x57cf,%eax,%eax
    1609:	89 44 24 04          	mov    %eax,0x4(%rsp)
    160d:	8b 44 24 0c          	mov    0xc(%rsp),%eax
    1611:	69 c0 a8 13 00 00    	imul   $0x13a8,%eax,%eax
    1617:	89 44 24 0c          	mov    %eax,0xc(%rsp)
    161b:	8b 44 24 04          	mov    0x4(%rsp),%eax
    161f:	69 c0 09 8f 00 00    	imul   $0x8f09,%eax,%eax
    1625:	89 44 24 04          	mov    %eax,0x4(%rsp)
    1629:	8b 44 24 20          	mov    0x20(%rsp),%eax
    162d:	69 c0 22 7a 00 00    	imul   $0x7a22,%eax,%eax
    1633:	89 44 24 20          	mov    %eax,0x20(%rsp)
    1637:	8b 44 24 08          	mov    0x8(%rsp),%eax
    163b:	69 c0 ae 31 00 00    	imul   $0x31ae,%eax,%eax
    1641:	89 44 24 08          	mov    %eax,0x8(%rsp)
    1645:	8b 44 24 0c          	mov    0xc(%rsp),%eax
    1649:	69 c0 4d c8 00 00    	imul   $0xc84d,%eax,%eax
    164f:	89 44 24 0c          	mov    %eax,0xc(%rsp)
    1653:	8b 44 24 24          	mov    0x24(%rsp),%eax
    1657:	69 c0 3a 24 00 00    	imul   $0x243a,%eax,%eax
    165d:	89 44 24 24          	mov    %eax,0x24(%rsp)
    1661:	8b 44 24 18          	mov    0x18(%rsp),%eax
    1665:	69 c0 37 73 00 00    	imul   $0x7337,%eax,%eax
    166b:	89 44 24 18          	mov    %eax,0x18(%rsp)
    166f:	8b 44 24 04          	mov    0x4(%rsp),%eax
    1673:	69 c0 f9 0c 00 00    	imul   $0xcf9,%eax,%eax
    1679:	89 44 24 04          	mov    %eax,0x4(%rsp)
    167d:	8b 44 24 24          	mov    0x24(%rsp),%eax
    1681:	69 c0 db d8 00 00    	imul   $0xd8db,%eax,%eax
    1687:	89 44 24 24          	mov    %eax,0x24(%rsp)
    168b:	8b 44 24 1c          	mov    0x1c(%rsp),%eax
    168f:	69 c0 34 a5 00 00    	imul   $0xa534,%eax,%eax
    1695:	89 44 24 1c          	mov    %eax,0x1c(%rsp)
    1699:	8b 44 24 04          	mov    0x4(%rsp),%eax
    169d:	69 c0 e4 90 00 00    	imul   $0x90e4,%eax,%eax
    16a3:	89 44 24 04          	mov    %eax,0x4(%rsp)
    16a7:	8b 44 24 18          	mov    0x18(%rsp),%eax
    16ab:	69 c0 22 13 00 00    	imul   $0x1322,%eax,%eax
    16b1:	89 44 24 18          	mov    %eax,0x18(%rsp)
    16b5:	8b 44 24 14          	mov    0x14(%rsp),%eax
    16b9:	69 c0 80 90 00 00    	imul   $0x9080,%eax,%eax
    16bf:	89 44 24 14          	mov    %eax,0x14(%rsp)
    16c3:	8b 04 24             	mov    (%rsp),%eax
    16c6:	69 c0 e9 7e 00 00    	imul   $0x7ee9,%eax,%eax
    16cc:	89 04 24             	mov    %eax,(%rsp)
    16cf:	8b 44 24 1c          	mov    0x1c(%rsp),%eax
    16d3:	69 c0 2a 9d 00 00    	imul   $0x9d2a,%eax,%eax
    16d9:	89 44 24 1c          	mov    %eax,0x1c(%rsp)
    16dd:	8b 44 24 08          	mov    0x8(%rsp),%eax
    16e1:	69 c0 fd 9e 00 00    	imul   $0x9efd,%eax,%eax
    16e7:	89 44 24 08          	mov    %eax,0x8(%rsp)
    16eb:	8b 44 24 18          	mov    0x18(%rsp),%eax
    16ef:	69 c0 a0 15 00 00    	imul   $0x15a0,%eax,%eax
    16f5:	89 44 24 18          	mov    %eax,0x18(%rsp)
    16f9:	8b 44 24 18          	mov    0x18(%rsp),%eax
    16fd:	69 c0 70 81 00 00    	imul   $0x8170,%eax,%eax
    1703:	89 44 24 18          	mov    %eax,0x18(%rsp)
    1707:	8b 04 24             	mov    (%rsp),%eax
    170a:	69 c0 09 d2 00 00    	imul   $0xd209,%eax,%eax
    1710:	89 04 24             	mov    %eax,(%rsp)
    1713:	8b 04 24             	mov    (%rsp),%eax
    1716:	69 c0 40 96 00 00    	imul   $0x9640,%eax,%eax
    171c:	89 04 24             	mov    %eax,(%rsp)
    171f:	8b 44 24 10          	mov    0x10(%rsp),%eax
    1723:	69 c0 40 e6 00 00    	imul   $0xe640,%eax,%eax
    1729:	89 44 24 10          	mov    %eax,0x10(%rsp)
    172d:	8b 44 24 0c          	mov    0xc(%rsp),%eax
    1731:	69 c0 b1 de 00 00    	imul   $0xdeb1,%eax,%eax
    1737:	89 44 24 0c          	mov    %eax,0xc(%rsp)
    173b:	8b 44 24 1c          	mov    0x1c(%rsp),%eax
    173f:	69 c0 c3 44 00 00    	imul   $0x44c3,%eax,%eax
    1745:	89 44 24 1c          	mov    %eax,0x1c(%rsp)
    1749:	8b 44 24 18          	mov    0x18(%rsp),%eax
    174d:	69 c0 cc d1 00 00    	imul   $0xd1cc,%eax,%eax
    1753:	89 44 24 18          	mov    %eax,0x18(%rsp)
    1757:	8b 04 24             	mov    (%rsp),%eax
    175a:	69 c0 3c a4 00 00    	imul   $0xa43c,%eax,%eax
    1760:	89 04 24             	mov    %eax,(%rsp)
    1763:	8b 44 24 24          	mov    0x24(%rsp),%eax
    1767:	69 c0 99 a6 00 00    	imul   $0xa699,%eax,%eax
    176d:	89 44 24 24          	mov    %eax,0x24(%rsp)
    1771:	8b 44 24 08          	mov    0x8(%rsp),%eax
    1775:	69 c0 24 0f 00 00    	imul   $0xf24,%eax,%eax
    177b:	89 44 24 08          	mov    %eax,0x8(%rsp)
    177f:	8b 44 24 10          	mov    0x10(%rsp),%eax
    1783:	69 c0 37 cd 00 00    	imul   $0xcd37,%eax,%eax
    1789:	89 44 24 10          	mov    %eax,0x10(%rsp)
    178d:	8b 44 24 1c          	mov    0x1c(%rsp),%eax
    1791:	69 c0 bb a4 00 00    	imul   $0xa4bb,%eax,%eax
    1797:	89 44 24 1c          	mov    %eax,0x1c(%rsp)
    179b:	8b 44 24 0c          	mov    0xc(%rsp),%eax
    179f:	69 c0 58 ca 00 00    	imul   $0xca58,%eax,%eax
    17a5:	89 44 24 0c          	mov    %eax,0xc(%rsp)
    17a9:	8b 44 24 20          	mov    0x20(%rsp),%eax
    17ad:	69 c0 da 22 00 00    	imul   $0x22da,%eax,%eax
    17b3:	89 44 24 20          	mov    %eax,0x20(%rsp)
    17b7:	8b 44 24 20          	mov    0x20(%rsp),%eax
    17bb:	69 c0 b8 f2 00 00    	imul   $0xf2b8,%eax,%eax
    17c1:	89 44 24 20          	mov    %eax,0x20(%rsp)
    17c5:	8b 44 24 18          	mov    0x18(%rsp),%eax
    17c9:	69 c0 5c 97 00 00    	imul   $0x975c,%eax,%eax
    17cf:	89 44 24 18          	mov    %eax,0x18(%rsp)
    17d3:	8b 44 24 14          	mov    0x14(%rsp),%eax
    17d7:	69 c0 3d c8 00 00    	imul   $0xc83d,%eax,%eax
    17dd:	89 44 24 14          	mov    %eax,0x14(%rsp)
    17e1:	8b 44 24 14          	mov    0x14(%rsp),%eax
    17e5:	69 c0 46 27 00 00    	imul   $0x2746,%eax,%eax
    17eb:	89 44 24 14          	mov    %eax,0x14(%rsp)
    17ef:	8b 44 24 10          	mov    0x10(%rsp),%eax
    17f3:	69 c0 bc 03 00 00    	imul   $0x3bc,%eax,%eax
    17f9:	89 44 24 10          	mov    %eax,0x10(%rsp)
    17fd:	8b 44 24 24          	mov    0x24(%rsp),%eax
    1801:	69 c0 f8 18 00 00    	imul   $0x18f8,%eax,%eax
    1807:	89 44 24 24          	mov    %eax,0x24(%rsp)
    180b:	8b 44 24 0c          	mov    0xc(%rsp),%eax
    180f:	69 c0 fd 66 00 00    	imul   $0x66fd,%eax,%eax
    1815:	89 44 24 0c          	mov    %eax,0xc(%rsp)
    1819:	8b 44 24 10          	mov    0x10(%rsp),%eax
    181d:	69 c0 18 ce 00 00    	imul   $0xce18,%eax,%eax
    1823:	89 44 24 10          	mov    %eax,0x10(%rsp)
    1827:	8b 44 24 1c          	mov    0x1c(%rsp),%eax
    182b:	69 c0 59 7b 00 00    	imul   $0x7b59,%eax,%eax
    1831:	89 44 24 1c          	mov    %eax,0x1c(%rsp)
    1835:	8b 44 24 10          	mov    0x10(%rsp),%eax
    1839:	69 c0 ca af 00 00    	imul   $0xafca,%eax,%eax
    183f:	89 44 24 10          	mov    %eax,0x10(%rsp)
    1843:	8b 04 24             	mov    (%rsp),%eax
    1846:	69 c0 76 a7 00 00    	imul   $0xa776,%eax,%eax
    184c:	89 04 24             	mov    %eax,(%rsp)
    184f:	8b 44 24 0c          	mov    0xc(%rsp),%eax
    1853:	69 c0 ae db 00 00    	imul   $0xdbae,%eax,%eax
    1859:	89 44 24 0c          	mov    %eax,0xc(%rsp)
    185d:	8b 44 24 14          	mov    0x14(%rsp),%eax
    1861:	69 c0 93 5e 00 00    	imul   $0x5e93,%eax,%eax
    1867:	89 44 24 14          	mov    %eax,0x14(%rsp)
    186b:	8b 44 24 04          	mov    0x4(%rsp),%eax
    186f:	69 c0 ce c0 00 00    	imul   $0xc0ce,%eax,%eax
    1875:	89 44 24 04          	mov    %eax,0x4(%rsp)
    1879:	8b 44 24 18          	mov    0x18(%rsp),%eax
    187d:	69 c0 4f c2 00 00    	imul   $0xc24f,%eax,%eax
    1883:	89 44 24 18          	mov    %eax,0x18(%rsp)
    1887:	8b 44 24 04          	mov    0x4(%rsp),%eax
    188b:	69 c0 41 92 00 00    	imul   $0x9241,%eax,%eax
    1891:	89 44 24 04          	mov    %eax,0x4(%rsp)
    1895:	8b 44 24 20          	mov    0x20(%rsp),%eax
    1899:	69 c0 23 1c 00 00    	imul   $0x1c23,%eax,%eax
    189f:	89 44 24 20          	mov    %eax,0x20(%rsp)
    18a3:	8b 44 24 08          	mov    0x8(%rsp),%eax
    18a7:	69 c0 2f 29 00 00    	imul   $0x292f,%eax,%eax
    18ad:	89 44 24 08          	mov    %eax,0x8(%rsp)
    18b1:	8b 44 24 1c          	mov    0x1c(%rsp),%eax
    18b5:	69 c0 03 93 00 00    	imul   $0x9303,%eax,%eax
    18bb:	89 44 24 1c          	mov    %eax,0x1c(%rsp)
    18bf:	8b 44 24 0c          	mov    0xc(%rsp),%eax
    18c3:	69 c0 dd 42 00 00    	imul   $0x42dd,%eax,%eax
    18c9:	89 44 24 0c          	mov    %eax,0xc(%rsp)
    18cd:	8b 44 24 04          	mov    0x4(%rsp),%eax
    18d1:	69 c0 fc 5d 00 00    	imul   $0x5dfc,%eax,%eax
    18d7:	89 44 24 04          	mov    %eax,0x4(%rsp)
    18db:	8b 44 24 0c          	mov    0xc(%rsp),%eax
    18df:	69 c0 2d 79 00 00    	imul   $0x792d,%eax,%eax
    18e5:	89 44 24 0c          	mov    %eax,0xc(%rsp)
    18e9:	8b 44 24 04          	mov    0x4(%rsp),%eax
    18ed:	69 c0 90 b9 00 00    	imul   $0xb990,%eax,%eax
    18f3:	89 44 24 04          	mov    %eax,0x4(%rsp)
    18f7:	8b 44 24 1c          	mov    0x1c(%rsp),%eax
    18fb:	69 c0 c3 fd 00 00    	imul   $0xfdc3,%eax,%eax
    1901:	89 44 24 1c          	mov    %eax,0x1c(%rsp)
    1905:	8b 44 24 18          	mov    0x18(%rsp),%eax
    1909:	69 c0 9a b9 00 00    	imul   $0xb99a,%eax,%eax
    190f:	89 44 24 18          	mov    %eax,0x18(%rsp)
    1913:	8b 44 24 20          	mov    0x20(%rsp),%eax
    1917:	69 c0 dc 56 00 00    	imul   $0x56dc,%eax,%eax
    191d:	89 44 24 20          	mov    %eax,0x20(%rsp)
    1921:	8b 04 24             	mov    (%rsp),%eax
    1924:	69 c0 7c 6c 00 00    	imul   $0x6c7c,%eax,%eax
    192a:	89 04 24             	mov    %eax,(%rsp)
    192d:	8b 44 24 14          	mov    0x14(%rsp),%eax
    1931:	69 c0 be d5 00 00    	imul   $0xd5be,%eax,%eax
    1937:	89 44 24 14          	mov    %eax,0x14(%rsp)
    193b:	8b 44 24 10          	mov    0x10(%rsp),%eax
    193f:	69 c0 f4 b2 00 00    	imul   $0xb2f4,%eax,%eax
    1945:	89 44 24 10          	mov    %eax,0x10(%rsp)
    1949:	8b 44 24 04          	mov    0x4(%rsp),%eax
    194d:	69 c0 fb f3 00 00    	imul   $0xf3fb,%eax,%eax
    1953:	89 44 24 04          	mov    %eax,0x4(%rsp)
    1957:	8b 04 24             	mov    (%rsp),%eax
    195a:	69 c0 35 7a 00 00    	imul   $0x7a35,%eax,%eax
    1960:	89 04 24             	mov    %eax,(%rsp)
    1963:	8b 44 24 20          	mov    0x20(%rsp),%eax
    1967:	69 c0 4a 2a 00 00    	imul   $0x2a4a,%eax,%eax
    196d:	89 44 24 20          	mov    %eax,0x20(%rsp)
    1971:	8b 44 24 0c          	mov    0xc(%rsp),%eax
    1975:	69 c0 da af 00 00    	imul   $0xafda,%eax,%eax
    197b:	89 44 24 0c          	mov    %eax,0xc(%rsp)
    197f:	8b 44 24 18          	mov    0x18(%rsp),%eax
    1983:	69 c0 b8 7a 00 00    	imul   $0x7ab8,%eax,%eax
    1989:	89 44 24 18          	mov    %eax,0x18(%rsp)
    198d:	ba 00 00 00 00       	mov    $0x0,%edx
    1992:	b8 00 00 00 00       	mov    $0x0,%eax
    1997:	eb 0a                	jmp    19a3 <scramble+0x431>
    1999:	89 d1                	mov    %edx,%ecx
    199b:	8b 0c 8c             	mov    (%rsp,%rcx,4),%ecx
    199e:	01 c8                	add    %ecx,%eax
    19a0:	83 c2 01             	add    $0x1,%edx
    19a3:	83 fa 09             	cmp    $0x9,%edx
    19a6:	76 f1                	jbe    1999 <scramble+0x427>
    19a8:	48 8b 74 24 28       	mov    0x28(%rsp),%rsi
    19ad:	64 48 33 34 25 28 00 	xor    %fs:0x28,%rsi
    19b4:	00 00 
    19b6:	75 05                	jne    19bd <scramble+0x44b>
    19b8:	48 83 c4 38          	add    $0x38,%rsp
    19bc:	c3                   	retq   
    19bd:	e8 86 f5 ff ff       	callq  f48 <_init+0x60>

00000000000019c2 <getbuf>:
    19c2:	48 83 ec 28          	sub    $0x28,%rsp
    19c6:	48 89 e7             	mov    %rsp,%rdi
    19c9:	e8 94 02 00 00       	callq  1c62 <Gets>
    19ce:	b8 01 00 00 00       	mov    $0x1,%eax
    19d3:	48 83 c4 28          	add    $0x28,%rsp
    19d7:	c3                   	retq   

00000000000019d8 <touch1>:
    19d8:	48 83 ec 08          	sub    $0x8,%rsp
    19dc:	c7 05 f6 39 20 00 01 	movl   $0x1,0x2039f6(%rip)        # 2053dc <vlevel>
    19e3:	00 00 00 
    19e6:	48 8d 3d 2f 1a 00 00 	lea    0x1a2f(%rip),%rdi        # 341c <_IO_stdin_used+0x38c>
    19ed:	e8 46 f5 ff ff       	callq  f38 <_init+0x50>
    19f2:	bf 01 00 00 00       	mov    $0x1,%edi
    19f7:	e8 d6 04 00 00       	callq  1ed2 <validate>
    19fc:	bf 00 00 00 00       	mov    $0x0,%edi
    1a01:	e8 ea f5 ff ff       	callq  ff0 <_init+0x108>

0000000000001a06 <touch2>:
    1a06:	48 83 ec 08          	sub    $0x8,%rsp
    1a0a:	89 fa                	mov    %edi,%edx
    1a0c:	c7 05 c6 39 20 00 02 	movl   $0x2,0x2039c6(%rip)        # 2053dc <vlevel>
    1a13:	00 00 00 
    1a16:	39 3d c8 39 20 00    	cmp    %edi,0x2039c8(%rip)        # 2053e4 <cookie>
    1a1c:	74 2a                	je     1a48 <touch2+0x42>
    1a1e:	48 8d 35 43 1a 00 00 	lea    0x1a43(%rip),%rsi        # 3468 <_IO_stdin_used+0x3d8>
    1a25:	bf 01 00 00 00       	mov    $0x1,%edi
    1a2a:	b8 00 00 00 00       	mov    $0x0,%eax
    1a2f:	e8 94 f5 ff ff       	callq  fc8 <_init+0xe0>
    1a34:	bf 02 00 00 00       	mov    $0x2,%edi
    1a39:	e8 64 05 00 00       	callq  1fa2 <fail>
    1a3e:	bf 00 00 00 00       	mov    $0x0,%edi
    1a43:	e8 a8 f5 ff ff       	callq  ff0 <_init+0x108>
    1a48:	48 8d 35 f1 19 00 00 	lea    0x19f1(%rip),%rsi        # 3440 <_IO_stdin_used+0x3b0>
    1a4f:	bf 01 00 00 00       	mov    $0x1,%edi
    1a54:	b8 00 00 00 00       	mov    $0x0,%eax
    1a59:	e8 6a f5 ff ff       	callq  fc8 <_init+0xe0>
    1a5e:	bf 02 00 00 00       	mov    $0x2,%edi
    1a63:	e8 6a 04 00 00       	callq  1ed2 <validate>
    1a68:	eb d4                	jmp    1a3e <touch2+0x38>

0000000000001a6a <hexmatch>:
    1a6a:	41 54                	push   %r12
    1a6c:	55                   	push   %rbp
    1a6d:	53                   	push   %rbx
    1a6e:	48 83 c4 80          	add    $0xffffffffffffff80,%rsp
    1a72:	89 fd                	mov    %edi,%ebp
    1a74:	48 89 f3             	mov    %rsi,%rbx
    1a77:	64 48 8b 04 25 28 00 	mov    %fs:0x28,%rax
    1a7e:	00 00 
    1a80:	48 89 44 24 78       	mov    %rax,0x78(%rsp)
    1a85:	31 c0                	xor    %eax,%eax
    1a87:	e8 1c f5 ff ff       	callq  fa8 <_init+0xc0>
    1a8c:	48 89 c1             	mov    %rax,%rcx
    1a8f:	48 ba 0b d7 a3 70 3d 	movabs $0xa3d70a3d70a3d70b,%rdx
    1a96:	0a d7 a3 
    1a99:	48 f7 ea             	imul   %rdx
    1a9c:	48 01 ca             	add    %rcx,%rdx
    1a9f:	48 c1 fa 06          	sar    $0x6,%rdx
    1aa3:	48 89 c8             	mov    %rcx,%rax
    1aa6:	48 c1 f8 3f          	sar    $0x3f,%rax
    1aaa:	48 29 c2             	sub    %rax,%rdx
    1aad:	48 8d 04 92          	lea    (%rdx,%rdx,4),%rax
    1ab1:	48 8d 14 80          	lea    (%rax,%rax,4),%rdx
    1ab5:	48 8d 04 95 00 00 00 	lea    0x0(,%rdx,4),%rax
    1abc:	00 
    1abd:	48 29 c1             	sub    %rax,%rcx
    1ac0:	4c 8d 24 0c          	lea    (%rsp,%rcx,1),%r12
    1ac4:	41 89 e8             	mov    %ebp,%r8d
    1ac7:	48 8d 0d 6b 19 00 00 	lea    0x196b(%rip),%rcx        # 3439 <_IO_stdin_used+0x3a9>
    1ace:	48 c7 c2 ff ff ff ff 	mov    $0xffffffffffffffff,%rdx
    1ad5:	be 01 00 00 00       	mov    $0x1,%esi
    1ada:	4c 89 e7             	mov    %r12,%rdi
    1add:	b8 00 00 00 00       	mov    $0x0,%eax
    1ae2:	e8 29 f5 ff ff       	callq  1010 <_init+0x128>
    1ae7:	ba 09 00 00 00       	mov    $0x9,%edx
    1aec:	4c 89 e6             	mov    %r12,%rsi
    1aef:	48 89 df             	mov    %rbx,%rdi
    1af2:	e8 31 f4 ff ff       	callq  f28 <_init+0x40>
    1af7:	85 c0                	test   %eax,%eax
    1af9:	0f 94 c0             	sete   %al
    1afc:	48 8b 5c 24 78       	mov    0x78(%rsp),%rbx
    1b01:	64 48 33 1c 25 28 00 	xor    %fs:0x28,%rbx
    1b08:	00 00 
    1b0a:	75 0c                	jne    1b18 <hexmatch+0xae>
    1b0c:	0f b6 c0             	movzbl %al,%eax
    1b0f:	48 83 ec 80          	sub    $0xffffffffffffff80,%rsp
    1b13:	5b                   	pop    %rbx
    1b14:	5d                   	pop    %rbp
    1b15:	41 5c                	pop    %r12
    1b17:	c3                   	retq   
    1b18:	e8 2b f4 ff ff       	callq  f48 <_init+0x60>

0000000000001b1d <touch3>:
    1b1d:	53                   	push   %rbx
    1b1e:	48 89 fb             	mov    %rdi,%rbx
    1b21:	c7 05 b1 38 20 00 03 	movl   $0x3,0x2038b1(%rip)        # 2053dc <vlevel>
    1b28:	00 00 00 
    1b2b:	48 89 fe             	mov    %rdi,%rsi
    1b2e:	8b 3d b0 38 20 00    	mov    0x2038b0(%rip),%edi        # 2053e4 <cookie>
    1b34:	e8 31 ff ff ff       	callq  1a6a <hexmatch>
    1b39:	85 c0                	test   %eax,%eax
    1b3b:	74 2d                	je     1b6a <touch3+0x4d>
    1b3d:	48 89 da             	mov    %rbx,%rdx
    1b40:	48 8d 35 49 19 00 00 	lea    0x1949(%rip),%rsi        # 3490 <_IO_stdin_used+0x400>
    1b47:	bf 01 00 00 00       	mov    $0x1,%edi
    1b4c:	b8 00 00 00 00       	mov    $0x0,%eax
    1b51:	e8 72 f4 ff ff       	callq  fc8 <_init+0xe0>
    1b56:	bf 03 00 00 00       	mov    $0x3,%edi
    1b5b:	e8 72 03 00 00       	callq  1ed2 <validate>
    1b60:	bf 00 00 00 00       	mov    $0x0,%edi
    1b65:	e8 86 f4 ff ff       	callq  ff0 <_init+0x108>
    1b6a:	48 89 da             	mov    %rbx,%rdx
    1b6d:	48 8d 35 44 19 00 00 	lea    0x1944(%rip),%rsi        # 34b8 <_IO_stdin_used+0x428>
    1b74:	bf 01 00 00 00       	mov    $0x1,%edi
    1b79:	b8 00 00 00 00       	mov    $0x0,%eax
    1b7e:	e8 45 f4 ff ff       	callq  fc8 <_init+0xe0>
    1b83:	bf 03 00 00 00       	mov    $0x3,%edi
    1b88:	e8 15 04 00 00       	callq  1fa2 <fail>
    1b8d:	eb d1                	jmp    1b60 <touch3+0x43>

0000000000001b8f <test>:
    1b8f:	48 83 ec 08          	sub    $0x8,%rsp
    1b93:	b8 00 00 00 00       	mov    $0x0,%eax
    1b98:	e8 25 fe ff ff       	callq  19c2 <getbuf>
    1b9d:	89 c2                	mov    %eax,%edx
    1b9f:	48 8d 35 3a 19 00 00 	lea    0x193a(%rip),%rsi        # 34e0 <_IO_stdin_used+0x450>
    1ba6:	bf 01 00 00 00       	mov    $0x1,%edi
    1bab:	b8 00 00 00 00       	mov    $0x0,%eax
    1bb0:	e8 13 f4 ff ff       	callq  fc8 <_init+0xe0>
    1bb5:	48 83 c4 08          	add    $0x8,%rsp
    1bb9:	c3                   	retq   

0000000000001bba <save_char>:
    1bba:	8b 05 44 44 20 00    	mov    0x204444(%rip),%eax        # 206004 <gets_cnt>
    1bc0:	3d ff 03 00 00       	cmp    $0x3ff,%eax
    1bc5:	7f 4a                	jg     1c11 <save_char+0x57>
    1bc7:	8d 14 40             	lea    (%rax,%rax,2),%edx
    1bca:	89 f9                	mov    %edi,%ecx
    1bcc:	c0 e9 04             	shr    $0x4,%cl
    1bcf:	4c 8d 05 2a 1c 00 00 	lea    0x1c2a(%rip),%r8        # 3800 <trans_char>
    1bd6:	83 e1 0f             	and    $0xf,%ecx
    1bd9:	45 0f b6 0c 08       	movzbl (%r8,%rcx,1),%r9d
    1bde:	48 8d 0d 1b 38 20 00 	lea    0x20381b(%rip),%rcx        # 205400 <gets_buf>
    1be5:	48 63 f2             	movslq %edx,%rsi
    1be8:	44 88 0c 31          	mov    %r9b,(%rcx,%rsi,1)
    1bec:	8d 72 01             	lea    0x1(%rdx),%esi
    1bef:	83 e7 0f             	and    $0xf,%edi
    1bf2:	41 0f b6 3c 38       	movzbl (%r8,%rdi,1),%edi
    1bf7:	48 63 f6             	movslq %esi,%rsi
    1bfa:	40 88 3c 31          	mov    %dil,(%rcx,%rsi,1)
    1bfe:	83 c2 02             	add    $0x2,%edx
    1c01:	48 63 d2             	movslq %edx,%rdx
    1c04:	c6 04 11 20          	movb   $0x20,(%rcx,%rdx,1)
    1c08:	83 c0 01             	add    $0x1,%eax
    1c0b:	89 05 f3 43 20 00    	mov    %eax,0x2043f3(%rip)        # 206004 <gets_cnt>
    1c11:	f3 c3                	repz retq 

0000000000001c13 <save_term>:
    1c13:	8b 05 eb 43 20 00    	mov    0x2043eb(%rip),%eax        # 206004 <gets_cnt>
    1c19:	8d 04 40             	lea    (%rax,%rax,2),%eax
    1c1c:	48 98                	cltq   
    1c1e:	48 8d 15 db 37 20 00 	lea    0x2037db(%rip),%rdx        # 205400 <gets_buf>
    1c25:	c6 04 02 00          	movb   $0x0,(%rdx,%rax,1)
    1c29:	c3                   	retq   

0000000000001c2a <check_fail>:
    1c2a:	48 83 ec 08          	sub    $0x8,%rsp
    1c2e:	0f be 15 d3 43 20 00 	movsbl 0x2043d3(%rip),%edx        # 206008 <target_prefix>
    1c35:	4c 8d 05 c4 37 20 00 	lea    0x2037c4(%rip),%r8        # 205400 <gets_buf>
    1c3c:	8b 0d 96 37 20 00    	mov    0x203796(%rip),%ecx        # 2053d8 <check_level>
    1c42:	48 8d 35 ba 18 00 00 	lea    0x18ba(%rip),%rsi        # 3503 <_IO_stdin_used+0x473>
    1c49:	bf 01 00 00 00       	mov    $0x1,%edi
    1c4e:	b8 00 00 00 00       	mov    $0x0,%eax
    1c53:	e8 70 f3 ff ff       	callq  fc8 <_init+0xe0>
    1c58:	bf 01 00 00 00       	mov    $0x1,%edi
    1c5d:	e8 8e f3 ff ff       	callq  ff0 <_init+0x108>

0000000000001c62 <Gets>:
    1c62:	41 54                	push   %r12
    1c64:	55                   	push   %rbp
    1c65:	53                   	push   %rbx
    1c66:	49 89 fc             	mov    %rdi,%r12
    1c69:	c7 05 91 43 20 00 00 	movl   $0x0,0x204391(%rip)        # 206004 <gets_cnt>
    1c70:	00 00 00 
    1c73:	48 89 fb             	mov    %rdi,%rbx
    1c76:	eb 11                	jmp    1c89 <Gets+0x27>
    1c78:	48 8d 6b 01          	lea    0x1(%rbx),%rbp
    1c7c:	88 03                	mov    %al,(%rbx)
    1c7e:	0f b6 f8             	movzbl %al,%edi
    1c81:	e8 34 ff ff ff       	callq  1bba <save_char>
    1c86:	48 89 eb             	mov    %rbp,%rbx
    1c89:	48 8b 3d 40 37 20 00 	mov    0x203740(%rip),%rdi        # 2053d0 <infile>
    1c90:	e8 1b f3 ff ff       	callq  fb0 <_init+0xc8>
    1c95:	83 f8 ff             	cmp    $0xffffffff,%eax
    1c98:	74 05                	je     1c9f <Gets+0x3d>
    1c9a:	83 f8 0a             	cmp    $0xa,%eax
    1c9d:	75 d9                	jne    1c78 <Gets+0x16>
    1c9f:	c6 03 00             	movb   $0x0,(%rbx)
    1ca2:	b8 00 00 00 00       	mov    $0x0,%eax
    1ca7:	e8 67 ff ff ff       	callq  1c13 <save_term>
    1cac:	4c 89 e0             	mov    %r12,%rax
    1caf:	5b                   	pop    %rbx
    1cb0:	5d                   	pop    %rbp
    1cb1:	41 5c                	pop    %r12
    1cb3:	c3                   	retq   

0000000000001cb4 <notify_server>:
    1cb4:	55                   	push   %rbp
    1cb5:	53                   	push   %rbx
    1cb6:	48 81 ec 18 40 00 00 	sub    $0x4018,%rsp
    1cbd:	64 48 8b 04 25 28 00 	mov    %fs:0x28,%rax
    1cc4:	00 00 
    1cc6:	48 89 84 24 08 40 00 	mov    %rax,0x4008(%rsp)
    1ccd:	00 
    1cce:	31 c0                	xor    %eax,%eax
    1cd0:	83 3d 11 37 20 00 00 	cmpl   $0x0,0x203711(%rip)        # 2053e8 <is_checker>
    1cd7:	0f 85 d2 00 00 00    	jne    1daf <notify_server+0xfb>
    1cdd:	89 fb                	mov    %edi,%ebx
    1cdf:	8b 05 1f 43 20 00    	mov    0x20431f(%rip),%eax        # 206004 <gets_cnt>
    1ce5:	83 c0 64             	add    $0x64,%eax
    1ce8:	3d 00 20 00 00       	cmp    $0x2000,%eax
    1ced:	0f 8f dd 00 00 00    	jg     1dd0 <notify_server+0x11c>
    1cf3:	0f be 05 0e 43 20 00 	movsbl 0x20430e(%rip),%eax        # 206008 <target_prefix>
    1cfa:	83 3d 67 36 20 00 00 	cmpl   $0x0,0x203667(%rip)        # 205368 <notify>
    1d01:	0f 84 e9 00 00 00    	je     1df0 <notify_server+0x13c>
    1d07:	8b 15 d3 36 20 00    	mov    0x2036d3(%rip),%edx        # 2053e0 <authkey>
    1d0d:	85 db                	test   %ebx,%ebx
    1d0f:	0f 84 e5 00 00 00    	je     1dfa <notify_server+0x146>
    1d15:	48 8d 2d fd 17 00 00 	lea    0x17fd(%rip),%rbp        # 3519 <_IO_stdin_used+0x489>
    1d1c:	48 89 e7             	mov    %rsp,%rdi
    1d1f:	48 8d 0d da 36 20 00 	lea    0x2036da(%rip),%rcx        # 205400 <gets_buf>
    1d26:	51                   	push   %rcx
    1d27:	56                   	push   %rsi
    1d28:	50                   	push   %rax
    1d29:	52                   	push   %rdx
    1d2a:	49 89 e9             	mov    %rbp,%r9
    1d2d:	44 8b 05 dc 32 20 00 	mov    0x2032dc(%rip),%r8d        # 205010 <target_id>
    1d34:	48 8d 0d e8 17 00 00 	lea    0x17e8(%rip),%rcx        # 3523 <_IO_stdin_used+0x493>
    1d3b:	ba 00 20 00 00       	mov    $0x2000,%edx
    1d40:	be 01 00 00 00       	mov    $0x1,%esi
    1d45:	b8 00 00 00 00       	mov    $0x0,%eax
    1d4a:	e8 c1 f2 ff ff       	callq  1010 <_init+0x128>
    1d4f:	48 83 c4 20          	add    $0x20,%rsp
    1d53:	83 3d 0e 36 20 00 00 	cmpl   $0x0,0x20360e(%rip)        # 205368 <notify>
    1d5a:	0f 84 df 00 00 00    	je     1e3f <notify_server+0x18b>
    1d60:	85 db                	test   %ebx,%ebx
    1d62:	0f 84 c6 00 00 00    	je     1e2e <notify_server+0x17a>
    1d68:	48 89 e1             	mov    %rsp,%rcx
    1d6b:	4c 8d 8c 24 00 20 00 	lea    0x2000(%rsp),%r9
    1d72:	00 
    1d73:	41 b8 00 00 00 00    	mov    $0x0,%r8d
    1d79:	48 8b 15 a8 32 20 00 	mov    0x2032a8(%rip),%rdx        # 205028 <lab>
    1d80:	48 8b 35 a9 32 20 00 	mov    0x2032a9(%rip),%rsi        # 205030 <course>
    1d87:	48 8b 3d 92 32 20 00 	mov    0x203292(%rip),%rdi        # 205020 <user_id>
    1d8e:	e8 b4 11 00 00       	callq  2f47 <driver_post>
    1d93:	85 c0                	test   %eax,%eax
    1d95:	78 6f                	js     1e06 <notify_server+0x152>
    1d97:	48 8d 3d ca 18 00 00 	lea    0x18ca(%rip),%rdi        # 3668 <_IO_stdin_used+0x5d8>
    1d9e:	e8 95 f1 ff ff       	callq  f38 <_init+0x50>
    1da3:	48 8d 3d a1 17 00 00 	lea    0x17a1(%rip),%rdi        # 354b <_IO_stdin_used+0x4bb>
    1daa:	e8 89 f1 ff ff       	callq  f38 <_init+0x50>
    1daf:	48 8b 84 24 08 40 00 	mov    0x4008(%rsp),%rax
    1db6:	00 
    1db7:	64 48 33 04 25 28 00 	xor    %fs:0x28,%rax
    1dbe:	00 00 
    1dc0:	0f 85 07 01 00 00    	jne    1ecd <notify_server+0x219>
    1dc6:	48 81 c4 18 40 00 00 	add    $0x4018,%rsp
    1dcd:	5b                   	pop    %rbx
    1dce:	5d                   	pop    %rbp
    1dcf:	c3                   	retq   
    1dd0:	48 8d 35 61 18 00 00 	lea    0x1861(%rip),%rsi        # 3638 <_IO_stdin_used+0x5a8>
    1dd7:	bf 01 00 00 00       	mov    $0x1,%edi
    1ddc:	b8 00 00 00 00       	mov    $0x0,%eax
    1de1:	e8 e2 f1 ff ff       	callq  fc8 <_init+0xe0>
    1de6:	bf 01 00 00 00       	mov    $0x1,%edi
    1deb:	e8 00 f2 ff ff       	callq  ff0 <_init+0x108>
    1df0:	ba ff ff ff ff       	mov    $0xffffffff,%edx
    1df5:	e9 13 ff ff ff       	jmpq   1d0d <notify_server+0x59>
    1dfa:	48 8d 2d 1d 17 00 00 	lea    0x171d(%rip),%rbp        # 351e <_IO_stdin_used+0x48e>
    1e01:	e9 16 ff ff ff       	jmpq   1d1c <notify_server+0x68>
    1e06:	48 8d 94 24 00 20 00 	lea    0x2000(%rsp),%rdx
    1e0d:	00 
    1e0e:	48 8d 35 2a 17 00 00 	lea    0x172a(%rip),%rsi        # 353f <_IO_stdin_used+0x4af>
    1e15:	bf 01 00 00 00       	mov    $0x1,%edi
    1e1a:	b8 00 00 00 00       	mov    $0x0,%eax
    1e1f:	e8 a4 f1 ff ff       	callq  fc8 <_init+0xe0>
    1e24:	bf 01 00 00 00       	mov    $0x1,%edi
    1e29:	e8 c2 f1 ff ff       	callq  ff0 <_init+0x108>
    1e2e:	48 8d 3d 20 17 00 00 	lea    0x1720(%rip),%rdi        # 3555 <_IO_stdin_used+0x4c5>
    1e35:	e8 fe f0 ff ff       	callq  f38 <_init+0x50>
    1e3a:	e9 70 ff ff ff       	jmpq   1daf <notify_server+0xfb>
    1e3f:	48 89 ea             	mov    %rbp,%rdx
    1e42:	48 8d 35 57 18 00 00 	lea    0x1857(%rip),%rsi        # 36a0 <_IO_stdin_used+0x610>
    1e49:	bf 01 00 00 00       	mov    $0x1,%edi
    1e4e:	b8 00 00 00 00       	mov    $0x0,%eax
    1e53:	e8 70 f1 ff ff       	callq  fc8 <_init+0xe0>
    1e58:	48 8b 15 c1 31 20 00 	mov    0x2031c1(%rip),%rdx        # 205020 <user_id>
    1e5f:	48 8d 35 f6 16 00 00 	lea    0x16f6(%rip),%rsi        # 355c <_IO_stdin_used+0x4cc>
    1e66:	bf 01 00 00 00       	mov    $0x1,%edi
    1e6b:	b8 00 00 00 00       	mov    $0x0,%eax
    1e70:	e8 53 f1 ff ff       	callq  fc8 <_init+0xe0>
    1e75:	48 8b 15 b4 31 20 00 	mov    0x2031b4(%rip),%rdx        # 205030 <course>
    1e7c:	48 8d 35 e6 16 00 00 	lea    0x16e6(%rip),%rsi        # 3569 <_IO_stdin_used+0x4d9>
    1e83:	bf 01 00 00 00       	mov    $0x1,%edi
    1e88:	b8 00 00 00 00       	mov    $0x0,%eax
    1e8d:	e8 36 f1 ff ff       	callq  fc8 <_init+0xe0>
    1e92:	48 8b 15 8f 31 20 00 	mov    0x20318f(%rip),%rdx        # 205028 <lab>
    1e99:	48 8d 35 d5 16 00 00 	lea    0x16d5(%rip),%rsi        # 3575 <_IO_stdin_used+0x4e5>
    1ea0:	bf 01 00 00 00       	mov    $0x1,%edi
    1ea5:	b8 00 00 00 00       	mov    $0x0,%eax
    1eaa:	e8 19 f1 ff ff       	callq  fc8 <_init+0xe0>
    1eaf:	48 89 e2             	mov    %rsp,%rdx
    1eb2:	48 8d 35 c5 16 00 00 	lea    0x16c5(%rip),%rsi        # 357e <_IO_stdin_used+0x4ee>
    1eb9:	bf 01 00 00 00       	mov    $0x1,%edi
    1ebe:	b8 00 00 00 00       	mov    $0x0,%eax
    1ec3:	e8 00 f1 ff ff       	callq  fc8 <_init+0xe0>
    1ec8:	e9 e2 fe ff ff       	jmpq   1daf <notify_server+0xfb>
    1ecd:	e8 76 f0 ff ff       	callq  f48 <_init+0x60>

0000000000001ed2 <validate>:
    1ed2:	53                   	push   %rbx
    1ed3:	89 fb                	mov    %edi,%ebx
    1ed5:	83 3d 0c 35 20 00 00 	cmpl   $0x0,0x20350c(%rip)        # 2053e8 <is_checker>
    1edc:	74 72                	je     1f50 <validate+0x7e>
    1ede:	39 3d f8 34 20 00    	cmp    %edi,0x2034f8(%rip)        # 2053dc <vlevel>
    1ee4:	75 32                	jne    1f18 <validate+0x46>
    1ee6:	8b 15 ec 34 20 00    	mov    0x2034ec(%rip),%edx        # 2053d8 <check_level>
    1eec:	39 d7                	cmp    %edx,%edi
    1eee:	75 3e                	jne    1f2e <validate+0x5c>
    1ef0:	0f be 15 11 41 20 00 	movsbl 0x204111(%rip),%edx        # 206008 <target_prefix>
    1ef7:	4c 8d 05 02 35 20 00 	lea    0x203502(%rip),%r8        # 205400 <gets_buf>
    1efe:	89 f9                	mov    %edi,%ecx
    1f00:	48 8d 35 a1 16 00 00 	lea    0x16a1(%rip),%rsi        # 35a8 <_IO_stdin_used+0x518>
    1f07:	bf 01 00 00 00       	mov    $0x1,%edi
    1f0c:	b8 00 00 00 00       	mov    $0x0,%eax
    1f11:	e8 b2 f0 ff ff       	callq  fc8 <_init+0xe0>
    1f16:	5b                   	pop    %rbx
    1f17:	c3                   	retq   
    1f18:	48 8d 3d 6b 16 00 00 	lea    0x166b(%rip),%rdi        # 358a <_IO_stdin_used+0x4fa>
    1f1f:	e8 14 f0 ff ff       	callq  f38 <_init+0x50>
    1f24:	b8 00 00 00 00       	mov    $0x0,%eax
    1f29:	e8 fc fc ff ff       	callq  1c2a <check_fail>
    1f2e:	89 f9                	mov    %edi,%ecx
    1f30:	48 8d 35 91 17 00 00 	lea    0x1791(%rip),%rsi        # 36c8 <_IO_stdin_used+0x638>
    1f37:	bf 01 00 00 00       	mov    $0x1,%edi
    1f3c:	b8 00 00 00 00       	mov    $0x0,%eax
    1f41:	e8 82 f0 ff ff       	callq  fc8 <_init+0xe0>
    1f46:	b8 00 00 00 00       	mov    $0x0,%eax
    1f4b:	e8 da fc ff ff       	callq  1c2a <check_fail>
    1f50:	3b 3d 86 34 20 00    	cmp    0x203486(%rip),%edi        # 2053dc <vlevel>
    1f56:	74 1a                	je     1f72 <validate+0xa0>
    1f58:	48 8d 3d 2b 16 00 00 	lea    0x162b(%rip),%rdi        # 358a <_IO_stdin_used+0x4fa>
    1f5f:	e8 d4 ef ff ff       	callq  f38 <_init+0x50>
    1f64:	89 de                	mov    %ebx,%esi
    1f66:	bf 00 00 00 00       	mov    $0x0,%edi
    1f6b:	e8 44 fd ff ff       	callq  1cb4 <notify_server>
    1f70:	eb a4                	jmp    1f16 <validate+0x44>
    1f72:	0f be 0d 8f 40 20 00 	movsbl 0x20408f(%rip),%ecx        # 206008 <target_prefix>
    1f79:	89 fa                	mov    %edi,%edx
    1f7b:	48 8d 35 6e 17 00 00 	lea    0x176e(%rip),%rsi        # 36f0 <_IO_stdin_used+0x660>
    1f82:	bf 01 00 00 00       	mov    $0x1,%edi
    1f87:	b8 00 00 00 00       	mov    $0x0,%eax
    1f8c:	e8 37 f0 ff ff       	callq  fc8 <_init+0xe0>
    1f91:	89 de                	mov    %ebx,%esi
    1f93:	bf 01 00 00 00       	mov    $0x1,%edi
    1f98:	e8 17 fd ff ff       	callq  1cb4 <notify_server>
    1f9d:	e9 74 ff ff ff       	jmpq   1f16 <validate+0x44>

0000000000001fa2 <fail>:
    1fa2:	48 83 ec 08          	sub    $0x8,%rsp
    1fa6:	83 3d 3b 34 20 00 00 	cmpl   $0x0,0x20343b(%rip)        # 2053e8 <is_checker>
    1fad:	75 11                	jne    1fc0 <fail+0x1e>
    1faf:	89 fe                	mov    %edi,%esi
    1fb1:	bf 00 00 00 00       	mov    $0x0,%edi
    1fb6:	e8 f9 fc ff ff       	callq  1cb4 <notify_server>
    1fbb:	48 83 c4 08          	add    $0x8,%rsp
    1fbf:	c3                   	retq   
    1fc0:	b8 00 00 00 00       	mov    $0x0,%eax
    1fc5:	e8 60 fc ff ff       	callq  1c2a <check_fail>

0000000000001fca <bushandler>:
    1fca:	48 83 ec 08          	sub    $0x8,%rsp
    1fce:	83 3d 13 34 20 00 00 	cmpl   $0x0,0x203413(%rip)        # 2053e8 <is_checker>
    1fd5:	74 16                	je     1fed <bushandler+0x23>
    1fd7:	48 8d 3d df 15 00 00 	lea    0x15df(%rip),%rdi        # 35bd <_IO_stdin_used+0x52d>
    1fde:	e8 55 ef ff ff       	callq  f38 <_init+0x50>
    1fe3:	b8 00 00 00 00       	mov    $0x0,%eax
    1fe8:	e8 3d fc ff ff       	callq  1c2a <check_fail>
    1fed:	48 8d 3d 34 17 00 00 	lea    0x1734(%rip),%rdi        # 3728 <_IO_stdin_used+0x698>
    1ff4:	e8 3f ef ff ff       	callq  f38 <_init+0x50>
    1ff9:	48 8d 3d c7 15 00 00 	lea    0x15c7(%rip),%rdi        # 35c7 <_IO_stdin_used+0x537>
    2000:	e8 33 ef ff ff       	callq  f38 <_init+0x50>
    2005:	be 00 00 00 00       	mov    $0x0,%esi
    200a:	bf 00 00 00 00       	mov    $0x0,%edi
    200f:	e8 a0 fc ff ff       	callq  1cb4 <notify_server>
    2014:	bf 01 00 00 00       	mov    $0x1,%edi
    2019:	e8 d2 ef ff ff       	callq  ff0 <_init+0x108>

000000000000201e <seghandler>:
    201e:	48 83 ec 08          	sub    $0x8,%rsp
    2022:	83 3d bf 33 20 00 00 	cmpl   $0x0,0x2033bf(%rip)        # 2053e8 <is_checker>
    2029:	74 16                	je     2041 <seghandler+0x23>
    202b:	48 8d 3d ab 15 00 00 	lea    0x15ab(%rip),%rdi        # 35dd <_IO_stdin_used+0x54d>
    2032:	e8 01 ef ff ff       	callq  f38 <_init+0x50>
    2037:	b8 00 00 00 00       	mov    $0x0,%eax
    203c:	e8 e9 fb ff ff       	callq  1c2a <check_fail>
    2041:	48 8d 3d 00 17 00 00 	lea    0x1700(%rip),%rdi        # 3748 <_IO_stdin_used+0x6b8>
    2048:	e8 eb ee ff ff       	callq  f38 <_init+0x50>
    204d:	48 8d 3d 73 15 00 00 	lea    0x1573(%rip),%rdi        # 35c7 <_IO_stdin_used+0x537>
    2054:	e8 df ee ff ff       	callq  f38 <_init+0x50>
    2059:	be 00 00 00 00       	mov    $0x0,%esi
    205e:	bf 00 00 00 00       	mov    $0x0,%edi
    2063:	e8 4c fc ff ff       	callq  1cb4 <notify_server>
    2068:	bf 01 00 00 00       	mov    $0x1,%edi
    206d:	e8 7e ef ff ff       	callq  ff0 <_init+0x108>

0000000000002072 <illegalhandler>:
    2072:	48 83 ec 08          	sub    $0x8,%rsp
    2076:	83 3d 6b 33 20 00 00 	cmpl   $0x0,0x20336b(%rip)        # 2053e8 <is_checker>
    207d:	74 16                	je     2095 <illegalhandler+0x23>
    207f:	48 8d 3d 6a 15 00 00 	lea    0x156a(%rip),%rdi        # 35f0 <_IO_stdin_used+0x560>
    2086:	e8 ad ee ff ff       	callq  f38 <_init+0x50>
    208b:	b8 00 00 00 00       	mov    $0x0,%eax
    2090:	e8 95 fb ff ff       	callq  1c2a <check_fail>
    2095:	48 8d 3d d4 16 00 00 	lea    0x16d4(%rip),%rdi        # 3770 <_IO_stdin_used+0x6e0>
    209c:	e8 97 ee ff ff       	callq  f38 <_init+0x50>
    20a1:	48 8d 3d 1f 15 00 00 	lea    0x151f(%rip),%rdi        # 35c7 <_IO_stdin_used+0x537>
    20a8:	e8 8b ee ff ff       	callq  f38 <_init+0x50>
    20ad:	be 00 00 00 00       	mov    $0x0,%esi
    20b2:	bf 00 00 00 00       	mov    $0x0,%edi
    20b7:	e8 f8 fb ff ff       	callq  1cb4 <notify_server>
    20bc:	bf 01 00 00 00       	mov    $0x1,%edi
    20c1:	e8 2a ef ff ff       	callq  ff0 <_init+0x108>

00000000000020c6 <sigalrmhandler>:
    20c6:	48 83 ec 08          	sub    $0x8,%rsp
    20ca:	83 3d 17 33 20 00 00 	cmpl   $0x0,0x203317(%rip)        # 2053e8 <is_checker>
    20d1:	74 16                	je     20e9 <sigalrmhandler+0x23>
    20d3:	48 8d 3d 2a 15 00 00 	lea    0x152a(%rip),%rdi        # 3604 <_IO_stdin_used+0x574>
    20da:	e8 59 ee ff ff       	callq  f38 <_init+0x50>
    20df:	b8 00 00 00 00       	mov    $0x0,%eax
    20e4:	e8 41 fb ff ff       	callq  1c2a <check_fail>
    20e9:	ba 05 00 00 00       	mov    $0x5,%edx
    20ee:	48 8d 35 ab 16 00 00 	lea    0x16ab(%rip),%rsi        # 37a0 <_IO_stdin_used+0x710>
    20f5:	bf 01 00 00 00       	mov    $0x1,%edi
    20fa:	b8 00 00 00 00       	mov    $0x0,%eax
    20ff:	e8 c4 ee ff ff       	callq  fc8 <_init+0xe0>
    2104:	be 00 00 00 00       	mov    $0x0,%esi
    2109:	bf 00 00 00 00       	mov    $0x0,%edi
    210e:	e8 a1 fb ff ff       	callq  1cb4 <notify_server>
    2113:	bf 01 00 00 00       	mov    $0x1,%edi
    2118:	e8 d3 ee ff ff       	callq  ff0 <_init+0x108>

000000000000211d <launch>:
    211d:	55                   	push   %rbp
    211e:	48 89 e5             	mov    %rsp,%rbp
    2121:	48 83 ec 10          	sub    $0x10,%rsp
    2125:	48 89 fa             	mov    %rdi,%rdx
    2128:	64 48 8b 04 25 28 00 	mov    %fs:0x28,%rax
    212f:	00 00 
    2131:	48 89 45 f8          	mov    %rax,-0x8(%rbp)
    2135:	31 c0                	xor    %eax,%eax
    2137:	48 8d 47 1e          	lea    0x1e(%rdi),%rax
    213b:	48 83 e0 f0          	and    $0xfffffffffffffff0,%rax
    213f:	48 29 c4             	sub    %rax,%rsp
    2142:	48 8d 7c 24 0f       	lea    0xf(%rsp),%rdi
    2147:	48 83 e7 f0          	and    $0xfffffffffffffff0,%rdi
    214b:	be f4 00 00 00       	mov    $0xf4,%esi
    2150:	e8 03 ee ff ff       	callq  f58 <_init+0x70>
    2155:	48 8b 05 24 32 20 00 	mov    0x203224(%rip),%rax        # 205380 <stdin@@GLIBC_2.2.5>
    215c:	48 39 05 6d 32 20 00 	cmp    %rax,0x20326d(%rip)        # 2053d0 <infile>
    2163:	74 3a                	je     219f <launch+0x82>
    2165:	c7 05 6d 32 20 00 00 	movl   $0x0,0x20326d(%rip)        # 2053dc <vlevel>
    216c:	00 00 00 
    216f:	b8 00 00 00 00       	mov    $0x0,%eax
    2174:	e8 16 fa ff ff       	callq  1b8f <test>
    2179:	83 3d 68 32 20 00 00 	cmpl   $0x0,0x203268(%rip)        # 2053e8 <is_checker>
    2180:	75 35                	jne    21b7 <launch+0x9a>
    2182:	48 8d 3d 9b 14 00 00 	lea    0x149b(%rip),%rdi        # 3624 <_IO_stdin_used+0x594>
    2189:	e8 aa ed ff ff       	callq  f38 <_init+0x50>
    218e:	48 8b 45 f8          	mov    -0x8(%rbp),%rax
    2192:	64 48 33 04 25 28 00 	xor    %fs:0x28,%rax
    2199:	00 00 
    219b:	75 30                	jne    21cd <launch+0xb0>
    219d:	c9                   	leaveq 
    219e:	c3                   	retq   
    219f:	48 8d 35 66 14 00 00 	lea    0x1466(%rip),%rsi        # 360c <_IO_stdin_used+0x57c>
    21a6:	bf 01 00 00 00       	mov    $0x1,%edi
    21ab:	b8 00 00 00 00       	mov    $0x0,%eax
    21b0:	e8 13 ee ff ff       	callq  fc8 <_init+0xe0>
    21b5:	eb ae                	jmp    2165 <launch+0x48>
    21b7:	48 8d 3d 5b 14 00 00 	lea    0x145b(%rip),%rdi        # 3619 <_IO_stdin_used+0x589>
    21be:	e8 75 ed ff ff       	callq  f38 <_init+0x50>
    21c3:	b8 00 00 00 00       	mov    $0x0,%eax
    21c8:	e8 5d fa ff ff       	callq  1c2a <check_fail>
    21cd:	e8 76 ed ff ff       	callq  f48 <_init+0x60>

00000000000021d2 <stable_launch>:
    21d2:	53                   	push   %rbx
    21d3:	48 89 3d ee 31 20 00 	mov    %rdi,0x2031ee(%rip)        # 2053c8 <global_offset>
    21da:	41 b9 00 00 00 00    	mov    $0x0,%r9d
    21e0:	41 b8 00 00 00 00    	mov    $0x0,%r8d
    21e6:	b9 32 01 00 00       	mov    $0x132,%ecx
    21eb:	ba 07 00 00 00       	mov    $0x7,%edx
    21f0:	be 00 00 10 00       	mov    $0x100000,%esi
    21f5:	bf 00 60 58 55       	mov    $0x55586000,%edi
    21fa:	e8 51 ed ff ff       	callq  f50 <_init+0x68>
    21ff:	48 89 c3             	mov    %rax,%rbx
    2202:	48 3d 00 60 58 55    	cmp    $0x55586000,%rax
    2208:	75 43                	jne    224d <stable_launch+0x7b>
    220a:	48 8d 90 f8 ff 0f 00 	lea    0xffff8(%rax),%rdx
    2211:	48 89 15 f8 3d 20 00 	mov    %rdx,0x203df8(%rip)        # 206010 <stack_top>
    2218:	48 89 e0             	mov    %rsp,%rax
    221b:	48 89 d4             	mov    %rdx,%rsp
    221e:	48 89 c2             	mov    %rax,%rdx
    2221:	48 89 15 98 31 20 00 	mov    %rdx,0x203198(%rip)        # 2053c0 <global_save_stack>
    2228:	48 8b 3d 99 31 20 00 	mov    0x203199(%rip),%rdi        # 2053c8 <global_offset>
    222f:	e8 e9 fe ff ff       	callq  211d <launch>
    2234:	48 8b 05 85 31 20 00 	mov    0x203185(%rip),%rax        # 2053c0 <global_save_stack>
    223b:	48 89 c4             	mov    %rax,%rsp
    223e:	be 00 00 10 00       	mov    $0x100000,%esi
    2243:	48 89 df             	mov    %rbx,%rdi
    2246:	e8 75 ed ff ff       	callq  fc0 <_init+0xd8>
    224b:	5b                   	pop    %rbx
    224c:	c3                   	retq   
    224d:	be 00 00 10 00       	mov    $0x100000,%esi
    2252:	48 89 c7             	mov    %rax,%rdi
    2255:	e8 66 ed ff ff       	callq  fc0 <_init+0xd8>
    225a:	b9 00 60 58 55       	mov    $0x55586000,%ecx
    225f:	48 8d 15 72 15 00 00 	lea    0x1572(%rip),%rdx        # 37d8 <_IO_stdin_used+0x748>
    2266:	be 01 00 00 00       	mov    $0x1,%esi
    226b:	48 8b 3d 2e 31 20 00 	mov    0x20312e(%rip),%rdi        # 2053a0 <stderr@@GLIBC_2.2.5>
    2272:	b8 00 00 00 00       	mov    $0x0,%eax
    2277:	e8 84 ed ff ff       	callq  1000 <_init+0x118>
    227c:	bf 01 00 00 00       	mov    $0x1,%edi
    2281:	e8 6a ed ff ff       	callq  ff0 <_init+0x108>

0000000000002286 <rio_readinitb>:
    2286:	89 37                	mov    %esi,(%rdi)
    2288:	c7 47 04 00 00 00 00 	movl   $0x0,0x4(%rdi)
    228f:	48 8d 47 10          	lea    0x10(%rdi),%rax
    2293:	48 89 47 08          	mov    %rax,0x8(%rdi)
    2297:	c3                   	retq   

0000000000002298 <sigalrm_handler>:
    2298:	48 83 ec 08          	sub    $0x8,%rsp
    229c:	b9 00 00 00 00       	mov    $0x0,%ecx
    22a1:	48 8d 15 68 15 00 00 	lea    0x1568(%rip),%rdx        # 3810 <trans_char+0x10>
    22a8:	be 01 00 00 00       	mov    $0x1,%esi
    22ad:	48 8b 3d ec 30 20 00 	mov    0x2030ec(%rip),%rdi        # 2053a0 <stderr@@GLIBC_2.2.5>
    22b4:	b8 00 00 00 00       	mov    $0x0,%eax
    22b9:	e8 42 ed ff ff       	callq  1000 <_init+0x118>
    22be:	bf 01 00 00 00       	mov    $0x1,%edi
    22c3:	e8 28 ed ff ff       	callq  ff0 <_init+0x108>

00000000000022c8 <rio_writen>:
    22c8:	41 55                	push   %r13
    22ca:	41 54                	push   %r12
    22cc:	55                   	push   %rbp
    22cd:	53                   	push   %rbx
    22ce:	48 83 ec 08          	sub    $0x8,%rsp
    22d2:	41 89 fc             	mov    %edi,%r12d
    22d5:	49 89 d5             	mov    %rdx,%r13
    22d8:	48 89 f5             	mov    %rsi,%rbp
    22db:	48 89 d3             	mov    %rdx,%rbx
    22de:	eb 06                	jmp    22e6 <rio_writen+0x1e>
    22e0:	48 29 c3             	sub    %rax,%rbx
    22e3:	48 01 c5             	add    %rax,%rbp
    22e6:	48 85 db             	test   %rbx,%rbx
    22e9:	74 24                	je     230f <rio_writen+0x47>
    22eb:	48 89 da             	mov    %rbx,%rdx
    22ee:	48 89 ee             	mov    %rbp,%rsi
    22f1:	44 89 e7             	mov    %r12d,%edi
    22f4:	e8 47 ec ff ff       	callq  f40 <_init+0x58>
    22f9:	48 85 c0             	test   %rax,%rax
    22fc:	7f e2                	jg     22e0 <rio_writen+0x18>
    22fe:	e8 15 ec ff ff       	callq  f18 <_init+0x30>
    2303:	83 38 04             	cmpl   $0x4,(%rax)
    2306:	75 15                	jne    231d <rio_writen+0x55>
    2308:	b8 00 00 00 00       	mov    $0x0,%eax
    230d:	eb d1                	jmp    22e0 <rio_writen+0x18>
    230f:	4c 89 e8             	mov    %r13,%rax
    2312:	48 83 c4 08          	add    $0x8,%rsp
    2316:	5b                   	pop    %rbx
    2317:	5d                   	pop    %rbp
    2318:	41 5c                	pop    %r12
    231a:	41 5d                	pop    %r13
    231c:	c3                   	retq   
    231d:	48 c7 c0 ff ff ff ff 	mov    $0xffffffffffffffff,%rax
    2324:	eb ec                	jmp    2312 <rio_writen+0x4a>

0000000000002326 <rio_read>:
    2326:	41 55                	push   %r13
    2328:	41 54                	push   %r12
    232a:	55                   	push   %rbp
    232b:	53                   	push   %rbx
    232c:	48 83 ec 08          	sub    $0x8,%rsp
    2330:	48 89 fb             	mov    %rdi,%rbx
    2333:	49 89 f5             	mov    %rsi,%r13
    2336:	49 89 d4             	mov    %rdx,%r12
    2339:	eb 0a                	jmp    2345 <rio_read+0x1f>
    233b:	e8 d8 eb ff ff       	callq  f18 <_init+0x30>
    2340:	83 38 04             	cmpl   $0x4,(%rax)
    2343:	75 5c                	jne    23a1 <rio_read+0x7b>
    2345:	8b 6b 04             	mov    0x4(%rbx),%ebp
    2348:	85 ed                	test   %ebp,%ebp
    234a:	7f 24                	jg     2370 <rio_read+0x4a>
    234c:	48 8d 6b 10          	lea    0x10(%rbx),%rbp
    2350:	8b 3b                	mov    (%rbx),%edi
    2352:	ba 00 20 00 00       	mov    $0x2000,%edx
    2357:	48 89 ee             	mov    %rbp,%rsi
    235a:	e8 11 ec ff ff       	callq  f70 <_init+0x88>
    235f:	89 43 04             	mov    %eax,0x4(%rbx)
    2362:	85 c0                	test   %eax,%eax
    2364:	78 d5                	js     233b <rio_read+0x15>
    2366:	85 c0                	test   %eax,%eax
    2368:	74 40                	je     23aa <rio_read+0x84>
    236a:	48 89 6b 08          	mov    %rbp,0x8(%rbx)
    236e:	eb d5                	jmp    2345 <rio_read+0x1f>
    2370:	89 e8                	mov    %ebp,%eax
    2372:	49 39 c4             	cmp    %rax,%r12
    2375:	77 03                	ja     237a <rio_read+0x54>
    2377:	44 89 e5             	mov    %r12d,%ebp
    237a:	4c 63 e5             	movslq %ebp,%r12
    237d:	48 8b 73 08          	mov    0x8(%rbx),%rsi
    2381:	4c 89 e2             	mov    %r12,%rdx
    2384:	4c 89 ef             	mov    %r13,%rdi
    2387:	e8 0c ec ff ff       	callq  f98 <_init+0xb0>
    238c:	4c 01 63 08          	add    %r12,0x8(%rbx)
    2390:	29 6b 04             	sub    %ebp,0x4(%rbx)
    2393:	4c 89 e0             	mov    %r12,%rax
    2396:	48 83 c4 08          	add    $0x8,%rsp
    239a:	5b                   	pop    %rbx
    239b:	5d                   	pop    %rbp
    239c:	41 5c                	pop    %r12
    239e:	41 5d                	pop    %r13
    23a0:	c3                   	retq   
    23a1:	48 c7 c0 ff ff ff ff 	mov    $0xffffffffffffffff,%rax
    23a8:	eb ec                	jmp    2396 <rio_read+0x70>
    23aa:	b8 00 00 00 00       	mov    $0x0,%eax
    23af:	eb e5                	jmp    2396 <rio_read+0x70>

00000000000023b1 <rio_readlineb>:
    23b1:	41 55                	push   %r13
    23b3:	41 54                	push   %r12
    23b5:	55                   	push   %rbp
    23b6:	53                   	push   %rbx
    23b7:	48 83 ec 18          	sub    $0x18,%rsp
    23bb:	49 89 fd             	mov    %rdi,%r13
    23be:	49 89 d4             	mov    %rdx,%r12
    23c1:	64 48 8b 04 25 28 00 	mov    %fs:0x28,%rax
    23c8:	00 00 
    23ca:	48 89 44 24 08       	mov    %rax,0x8(%rsp)
    23cf:	31 c0                	xor    %eax,%eax
    23d1:	48 89 f5             	mov    %rsi,%rbp
    23d4:	bb 01 00 00 00       	mov    $0x1,%ebx
    23d9:	4c 39 e3             	cmp    %r12,%rbx
    23dc:	73 47                	jae    2425 <rio_readlineb+0x74>
    23de:	48 8d 74 24 07       	lea    0x7(%rsp),%rsi
    23e3:	ba 01 00 00 00       	mov    $0x1,%edx
    23e8:	4c 89 ef             	mov    %r13,%rdi
    23eb:	e8 36 ff ff ff       	callq  2326 <rio_read>
    23f0:	83 f8 01             	cmp    $0x1,%eax
    23f3:	75 1c                	jne    2411 <rio_readlineb+0x60>
    23f5:	48 8d 45 01          	lea    0x1(%rbp),%rax
    23f9:	0f b6 54 24 07       	movzbl 0x7(%rsp),%edx
    23fe:	88 55 00             	mov    %dl,0x0(%rbp)
    2401:	80 7c 24 07 0a       	cmpb   $0xa,0x7(%rsp)
    2406:	74 1a                	je     2422 <rio_readlineb+0x71>
    2408:	48 83 c3 01          	add    $0x1,%rbx
    240c:	48 89 c5             	mov    %rax,%rbp
    240f:	eb c8                	jmp    23d9 <rio_readlineb+0x28>
    2411:	85 c0                	test   %eax,%eax
    2413:	75 32                	jne    2447 <rio_readlineb+0x96>
    2415:	48 83 fb 01          	cmp    $0x1,%rbx
    2419:	75 0a                	jne    2425 <rio_readlineb+0x74>
    241b:	b8 00 00 00 00       	mov    $0x0,%eax
    2420:	eb 0a                	jmp    242c <rio_readlineb+0x7b>
    2422:	48 89 c5             	mov    %rax,%rbp
    2425:	c6 45 00 00          	movb   $0x0,0x0(%rbp)
    2429:	48 89 d8             	mov    %rbx,%rax
    242c:	48 8b 4c 24 08       	mov    0x8(%rsp),%rcx
    2431:	64 48 33 0c 25 28 00 	xor    %fs:0x28,%rcx
    2438:	00 00 
    243a:	75 14                	jne    2450 <rio_readlineb+0x9f>
    243c:	48 83 c4 18          	add    $0x18,%rsp
    2440:	5b                   	pop    %rbx
    2441:	5d                   	pop    %rbp
    2442:	41 5c                	pop    %r12
    2444:	41 5d                	pop    %r13
    2446:	c3                   	retq   
    2447:	48 c7 c0 ff ff ff ff 	mov    $0xffffffffffffffff,%rax
    244e:	eb dc                	jmp    242c <rio_readlineb+0x7b>
    2450:	e8 f3 ea ff ff       	callq  f48 <_init+0x60>

0000000000002455 <urlencode>:
    2455:	41 54                	push   %r12
    2457:	55                   	push   %rbp
    2458:	53                   	push   %rbx
    2459:	48 83 ec 10          	sub    $0x10,%rsp
    245d:	48 89 fb             	mov    %rdi,%rbx
    2460:	48 89 f5             	mov    %rsi,%rbp
    2463:	64 48 8b 04 25 28 00 	mov    %fs:0x28,%rax
    246a:	00 00 
    246c:	48 89 44 24 08       	mov    %rax,0x8(%rsp)
    2471:	31 c0                	xor    %eax,%eax
    2473:	48 c7 c1 ff ff ff ff 	mov    $0xffffffffffffffff,%rcx
    247a:	f2 ae                	repnz scas %es:(%rdi),%al
    247c:	48 f7 d1             	not    %rcx
    247f:	8d 41 ff             	lea    -0x1(%rcx),%eax
    2482:	eb 0f                	jmp    2493 <urlencode+0x3e>
    2484:	44 88 45 00          	mov    %r8b,0x0(%rbp)
    2488:	48 8d 6d 01          	lea    0x1(%rbp),%rbp
    248c:	48 83 c3 01          	add    $0x1,%rbx
    2490:	44 89 e0             	mov    %r12d,%eax
    2493:	44 8d 60 ff          	lea    -0x1(%rax),%r12d
    2497:	85 c0                	test   %eax,%eax
    2499:	0f 84 a8 00 00 00    	je     2547 <urlencode+0xf2>
    249f:	44 0f b6 03          	movzbl (%rbx),%r8d
    24a3:	41 80 f8 2a          	cmp    $0x2a,%r8b
    24a7:	0f 94 c2             	sete   %dl
    24aa:	41 80 f8 2d          	cmp    $0x2d,%r8b
    24ae:	0f 94 c0             	sete   %al
    24b1:	08 c2                	or     %al,%dl
    24b3:	75 cf                	jne    2484 <urlencode+0x2f>
    24b5:	41 80 f8 2e          	cmp    $0x2e,%r8b
    24b9:	74 c9                	je     2484 <urlencode+0x2f>
    24bb:	41 80 f8 5f          	cmp    $0x5f,%r8b
    24bf:	74 c3                	je     2484 <urlencode+0x2f>
    24c1:	41 8d 40 d0          	lea    -0x30(%r8),%eax
    24c5:	3c 09                	cmp    $0x9,%al
    24c7:	76 bb                	jbe    2484 <urlencode+0x2f>
    24c9:	41 8d 40 bf          	lea    -0x41(%r8),%eax
    24cd:	3c 19                	cmp    $0x19,%al
    24cf:	76 b3                	jbe    2484 <urlencode+0x2f>
    24d1:	41 8d 40 9f          	lea    -0x61(%r8),%eax
    24d5:	3c 19                	cmp    $0x19,%al
    24d7:	76 ab                	jbe    2484 <urlencode+0x2f>
    24d9:	41 80 f8 20          	cmp    $0x20,%r8b
    24dd:	74 56                	je     2535 <urlencode+0xe0>
    24df:	41 8d 40 e0          	lea    -0x20(%r8),%eax
    24e3:	3c 5f                	cmp    $0x5f,%al
    24e5:	0f 96 c2             	setbe  %dl
    24e8:	41 80 f8 09          	cmp    $0x9,%r8b
    24ec:	0f 94 c0             	sete   %al
    24ef:	08 c2                	or     %al,%dl
    24f1:	74 4f                	je     2542 <urlencode+0xed>
    24f3:	48 89 e7             	mov    %rsp,%rdi
    24f6:	45 0f b6 c0          	movzbl %r8b,%r8d
    24fa:	48 8d 0d a7 13 00 00 	lea    0x13a7(%rip),%rcx        # 38a8 <trans_char+0xa8>
    2501:	ba 08 00 00 00       	mov    $0x8,%edx
    2506:	be 01 00 00 00       	mov    $0x1,%esi
    250b:	b8 00 00 00 00       	mov    $0x0,%eax
    2510:	e8 fb ea ff ff       	callq  1010 <_init+0x128>
    2515:	0f b6 04 24          	movzbl (%rsp),%eax
    2519:	88 45 00             	mov    %al,0x0(%rbp)
    251c:	0f b6 44 24 01       	movzbl 0x1(%rsp),%eax
    2521:	88 45 01             	mov    %al,0x1(%rbp)
    2524:	0f b6 44 24 02       	movzbl 0x2(%rsp),%eax
    2529:	88 45 02             	mov    %al,0x2(%rbp)
    252c:	48 8d 6d 03          	lea    0x3(%rbp),%rbp
    2530:	e9 57 ff ff ff       	jmpq   248c <urlencode+0x37>
    2535:	c6 45 00 2b          	movb   $0x2b,0x0(%rbp)
    2539:	48 8d 6d 01          	lea    0x1(%rbp),%rbp
    253d:	e9 4a ff ff ff       	jmpq   248c <urlencode+0x37>
    2542:	b8 ff ff ff ff       	mov    $0xffffffff,%eax
    2547:	48 8b 74 24 08       	mov    0x8(%rsp),%rsi
    254c:	64 48 33 34 25 28 00 	xor    %fs:0x28,%rsi
    2553:	00 00 
    2555:	75 09                	jne    2560 <urlencode+0x10b>
    2557:	48 83 c4 10          	add    $0x10,%rsp
    255b:	5b                   	pop    %rbx
    255c:	5d                   	pop    %rbp
    255d:	41 5c                	pop    %r12
    255f:	c3                   	retq   
    2560:	e8 e3 e9 ff ff       	callq  f48 <_init+0x60>

0000000000002565 <submitr>:
    2565:	41 57                	push   %r15
    2567:	41 56                	push   %r14
    2569:	41 55                	push   %r13
    256b:	41 54                	push   %r12
    256d:	55                   	push   %rbp
    256e:	53                   	push   %rbx
    256f:	48 81 ec 68 a0 00 00 	sub    $0xa068,%rsp
    2576:	49 89 fd             	mov    %rdi,%r13
    2579:	89 74 24 14          	mov    %esi,0x14(%rsp)
    257d:	49 89 d7             	mov    %rdx,%r15
    2580:	48 89 4c 24 08       	mov    %rcx,0x8(%rsp)
    2585:	4c 89 44 24 18       	mov    %r8,0x18(%rsp)
    258a:	4d 89 ce             	mov    %r9,%r14
    258d:	48 8b 9c 24 a0 a0 00 	mov    0xa0a0(%rsp),%rbx
    2594:	00 
    2595:	64 48 8b 04 25 28 00 	mov    %fs:0x28,%rax
    259c:	00 00 
    259e:	48 89 84 24 58 a0 00 	mov    %rax,0xa058(%rsp)
    25a5:	00 
    25a6:	31 c0                	xor    %eax,%eax
    25a8:	c7 44 24 2c 00 00 00 	movl   $0x0,0x2c(%rsp)
    25af:	00 
    25b0:	ba 00 00 00 00       	mov    $0x0,%edx
    25b5:	be 01 00 00 00       	mov    $0x1,%esi
    25ba:	bf 02 00 00 00       	mov    $0x2,%edi
    25bf:	e8 54 ea ff ff       	callq  1018 <_init+0x130>
    25c4:	85 c0                	test   %eax,%eax
    25c6:	0f 88 c8 01 00 00    	js     2794 <submitr+0x22f>
    25cc:	89 c5                	mov    %eax,%ebp
    25ce:	4c 89 ef             	mov    %r13,%rdi
    25d1:	e8 aa e9 ff ff       	callq  f80 <_init+0x98>
    25d6:	48 85 c0             	test   %rax,%rax
    25d9:	0f 84 03 02 00 00    	je     27e2 <submitr+0x27d>
    25df:	4c 8d 64 24 30       	lea    0x30(%rsp),%r12
    25e4:	48 c7 44 24 30 00 00 	movq   $0x0,0x30(%rsp)
    25eb:	00 00 
    25ed:	48 c7 44 24 38 00 00 	movq   $0x0,0x38(%rsp)
    25f4:	00 00 
    25f6:	66 c7 44 24 30 02 00 	movw   $0x2,0x30(%rsp)
    25fd:	48 63 50 14          	movslq 0x14(%rax),%rdx
    2601:	48 8b 40 18          	mov    0x18(%rax),%rax
    2605:	48 8b 30             	mov    (%rax),%rsi
    2608:	48 8d 7c 24 34       	lea    0x34(%rsp),%rdi
    260d:	b9 0c 00 00 00       	mov    $0xc,%ecx
    2612:	e8 71 e9 ff ff       	callq  f88 <_init+0xa0>
    2617:	0f b7 44 24 14       	movzwl 0x14(%rsp),%eax
    261c:	66 c1 c8 08          	ror    $0x8,%ax
    2620:	66 89 44 24 32       	mov    %ax,0x32(%rsp)
    2625:	ba 10 00 00 00       	mov    $0x10,%edx
    262a:	4c 89 e6             	mov    %r12,%rsi
    262d:	89 ef                	mov    %ebp,%edi
    262f:	e8 c4 e9 ff ff       	callq  ff8 <_init+0x110>
    2634:	85 c0                	test   %eax,%eax
    2636:	0f 88 0d 02 00 00    	js     2849 <submitr+0x2e4>
    263c:	48 c7 c6 ff ff ff ff 	mov    $0xffffffffffffffff,%rsi
    2643:	b8 00 00 00 00       	mov    $0x0,%eax
    2648:	48 89 f1             	mov    %rsi,%rcx
    264b:	4c 89 f7             	mov    %r14,%rdi
    264e:	f2 ae                	repnz scas %es:(%rdi),%al
    2650:	48 f7 d1             	not    %rcx
    2653:	48 89 ca             	mov    %rcx,%rdx
    2656:	48 89 f1             	mov    %rsi,%rcx
    2659:	4c 89 ff             	mov    %r15,%rdi
    265c:	f2 ae                	repnz scas %es:(%rdi),%al
    265e:	48 f7 d1             	not    %rcx
    2661:	49 89 c8             	mov    %rcx,%r8
    2664:	48 89 f1             	mov    %rsi,%rcx
    2667:	48 8b 7c 24 08       	mov    0x8(%rsp),%rdi
    266c:	f2 ae                	repnz scas %es:(%rdi),%al
    266e:	48 f7 d1             	not    %rcx
    2671:	4d 8d 44 08 fe       	lea    -0x2(%r8,%rcx,1),%r8
    2676:	48 89 f1             	mov    %rsi,%rcx
    2679:	48 8b 7c 24 18       	mov    0x18(%rsp),%rdi
    267e:	f2 ae                	repnz scas %es:(%rdi),%al
    2680:	48 89 c8             	mov    %rcx,%rax
    2683:	48 f7 d0             	not    %rax
    2686:	49 8d 4c 00 ff       	lea    -0x1(%r8,%rax,1),%rcx
    268b:	48 8d 44 52 fd       	lea    -0x3(%rdx,%rdx,2),%rax
    2690:	48 8d 84 01 80 00 00 	lea    0x80(%rcx,%rax,1),%rax
    2697:	00 
    2698:	48 3d 00 20 00 00    	cmp    $0x2000,%rax
    269e:	0f 87 fe 01 00 00    	ja     28a2 <submitr+0x33d>
    26a4:	48 8d b4 24 50 40 00 	lea    0x4050(%rsp),%rsi
    26ab:	00 
    26ac:	b9 00 04 00 00       	mov    $0x400,%ecx
    26b1:	b8 00 00 00 00       	mov    $0x0,%eax
    26b6:	48 89 f7             	mov    %rsi,%rdi
    26b9:	f3 48 ab             	rep stos %rax,%es:(%rdi)
    26bc:	4c 89 f7             	mov    %r14,%rdi
    26bf:	e8 91 fd ff ff       	callq  2455 <urlencode>
    26c4:	85 c0                	test   %eax,%eax
    26c6:	0f 88 48 02 00 00    	js     2914 <submitr+0x3af>
    26cc:	4c 8d a4 24 50 20 00 	lea    0x2050(%rsp),%r12
    26d3:	00 
    26d4:	41 55                	push   %r13
    26d6:	48 8d 84 24 58 40 00 	lea    0x4058(%rsp),%rax
    26dd:	00 
    26de:	50                   	push   %rax
    26df:	4d 89 f9             	mov    %r15,%r9
    26e2:	4c 8b 44 24 18       	mov    0x18(%rsp),%r8
    26e7:	48 8d 0d 4a 11 00 00 	lea    0x114a(%rip),%rcx        # 3838 <trans_char+0x38>
    26ee:	ba 00 20 00 00       	mov    $0x2000,%edx
    26f3:	be 01 00 00 00       	mov    $0x1,%esi
    26f8:	4c 89 e7             	mov    %r12,%rdi
    26fb:	b8 00 00 00 00       	mov    $0x0,%eax
    2700:	e8 0b e9 ff ff       	callq  1010 <_init+0x128>
    2705:	b8 00 00 00 00       	mov    $0x0,%eax
    270a:	48 c7 c1 ff ff ff ff 	mov    $0xffffffffffffffff,%rcx
    2711:	4c 89 e7             	mov    %r12,%rdi
    2714:	f2 ae                	repnz scas %es:(%rdi),%al
    2716:	48 f7 d1             	not    %rcx
    2719:	48 8d 51 ff          	lea    -0x1(%rcx),%rdx
    271d:	4c 89 e6             	mov    %r12,%rsi
    2720:	89 ef                	mov    %ebp,%edi
    2722:	e8 a1 fb ff ff       	callq  22c8 <rio_writen>
    2727:	48 83 c4 10          	add    $0x10,%rsp
    272b:	48 85 c0             	test   %rax,%rax
    272e:	0f 88 6a 02 00 00    	js     299e <submitr+0x439>
    2734:	4c 8d 64 24 40       	lea    0x40(%rsp),%r12
    2739:	89 ee                	mov    %ebp,%esi
    273b:	4c 89 e7             	mov    %r12,%rdi
    273e:	e8 43 fb ff ff       	callq  2286 <rio_readinitb>
    2743:	48 8d b4 24 50 20 00 	lea    0x2050(%rsp),%rsi
    274a:	00 
    274b:	ba 00 20 00 00       	mov    $0x2000,%edx
    2750:	4c 89 e7             	mov    %r12,%rdi
    2753:	e8 59 fc ff ff       	callq  23b1 <rio_readlineb>
    2758:	48 85 c0             	test   %rax,%rax
    275b:	0f 8e ab 02 00 00    	jle    2a0c <submitr+0x4a7>
    2761:	48 8d 4c 24 2c       	lea    0x2c(%rsp),%rcx
    2766:	48 8d 94 24 50 60 00 	lea    0x6050(%rsp),%rdx
    276d:	00 
    276e:	48 8d bc 24 50 20 00 	lea    0x2050(%rsp),%rdi
    2775:	00 
    2776:	4c 8d 84 24 50 80 00 	lea    0x8050(%rsp),%r8
    277d:	00 
    277e:	48 8d 35 2a 11 00 00 	lea    0x112a(%rip),%rsi        # 38af <trans_char+0xaf>
    2785:	b8 00 00 00 00       	mov    $0x0,%eax
    278a:	e8 29 e8 ff ff       	callq  fb8 <_init+0xd0>
    278f:	e9 b3 03 00 00       	jmpq   2b47 <submitr+0x5e2>
    2794:	48 b8 45 72 72 6f 72 	movabs $0x43203a726f727245,%rax
    279b:	3a 20 43 
    279e:	48 89 03             	mov    %rax,(%rbx)
    27a1:	48 b8 6c 69 65 6e 74 	movabs $0x6e7520746e65696c,%rax
    27a8:	20 75 6e 
    27ab:	48 89 43 08          	mov    %rax,0x8(%rbx)
    27af:	48 b8 61 62 6c 65 20 	movabs $0x206f7420656c6261,%rax
    27b6:	74 6f 20 
    27b9:	48 89 43 10          	mov    %rax,0x10(%rbx)
    27bd:	48 b8 63 72 65 61 74 	movabs $0x7320657461657263,%rax
    27c4:	65 20 73 
    27c7:	48 89 43 18          	mov    %rax,0x18(%rbx)
    27cb:	c7 43 20 6f 63 6b 65 	movl   $0x656b636f,0x20(%rbx)
    27d2:	66 c7 43 24 74 00    	movw   $0x74,0x24(%rbx)
    27d8:	b8 ff ff ff ff       	mov    $0xffffffff,%eax
    27dd:	e9 18 03 00 00       	jmpq   2afa <submitr+0x595>
    27e2:	48 b8 45 72 72 6f 72 	movabs $0x44203a726f727245,%rax
    27e9:	3a 20 44 
    27ec:	48 89 03             	mov    %rax,(%rbx)
    27ef:	48 b8 4e 53 20 69 73 	movabs $0x6e7520736920534e,%rax
    27f6:	20 75 6e 
    27f9:	48 89 43 08          	mov    %rax,0x8(%rbx)
    27fd:	48 b8 61 62 6c 65 20 	movabs $0x206f7420656c6261,%rax
    2804:	74 6f 20 
    2807:	48 89 43 10          	mov    %rax,0x10(%rbx)
    280b:	48 b8 72 65 73 6f 6c 	movabs $0x2065766c6f736572,%rax
    2812:	76 65 20 
    2815:	48 89 43 18          	mov    %rax,0x18(%rbx)
    2819:	48 b8 73 65 72 76 65 	movabs $0x6120726576726573,%rax
    2820:	72 20 61 
    2823:	48 89 43 20          	mov    %rax,0x20(%rbx)
    2827:	c7 43 28 64 64 72 65 	movl   $0x65726464,0x28(%rbx)
    282e:	66 c7 43 2c 73 73    	movw   $0x7373,0x2c(%rbx)
    2834:	c6 43 2e 00          	movb   $0x0,0x2e(%rbx)
    2838:	89 ef                	mov    %ebp,%edi
    283a:	e8 29 e7 ff ff       	callq  f68 <_init+0x80>
    283f:	b8 ff ff ff ff       	mov    $0xffffffff,%eax
    2844:	e9 b1 02 00 00       	jmpq   2afa <submitr+0x595>
    2849:	48 b8 45 72 72 6f 72 	movabs $0x55203a726f727245,%rax
    2850:	3a 20 55 
    2853:	48 89 03             	mov    %rax,(%rbx)
    2856:	48 b8 6e 61 62 6c 65 	movabs $0x6f7420656c62616e,%rax
    285d:	20 74 6f 
    2860:	48 89 43 08          	mov    %rax,0x8(%rbx)
    2864:	48 b8 20 63 6f 6e 6e 	movabs $0x7463656e6e6f6320,%rax
    286b:	65 63 74 
    286e:	48 89 43 10          	mov    %rax,0x10(%rbx)
    2872:	48 b8 20 74 6f 20 74 	movabs $0x20656874206f7420,%rax
    2879:	68 65 20 
    287c:	48 89 43 18          	mov    %rax,0x18(%rbx)
    2880:	c7 43 20 73 65 72 76 	movl   $0x76726573,0x20(%rbx)
    2887:	66 c7 43 24 65 72    	movw   $0x7265,0x24(%rbx)
    288d:	c6 43 26 00          	movb   $0x0,0x26(%rbx)
    2891:	89 ef                	mov    %ebp,%edi
    2893:	e8 d0 e6 ff ff       	callq  f68 <_init+0x80>
    2898:	b8 ff ff ff ff       	mov    $0xffffffff,%eax
    289d:	e9 58 02 00 00       	jmpq   2afa <submitr+0x595>
    28a2:	48 b8 45 72 72 6f 72 	movabs $0x52203a726f727245,%rax
    28a9:	3a 20 52 
    28ac:	48 89 03             	mov    %rax,(%rbx)
    28af:	48 b8 65 73 75 6c 74 	movabs $0x747320746c757365,%rax
    28b6:	20 73 74 
    28b9:	48 89 43 08          	mov    %rax,0x8(%rbx)
    28bd:	48 b8 72 69 6e 67 20 	movabs $0x6f6f7420676e6972,%rax
    28c4:	74 6f 6f 
    28c7:	48 89 43 10          	mov    %rax,0x10(%rbx)
    28cb:	48 b8 20 6c 61 72 67 	movabs $0x202e656772616c20,%rax
    28d2:	65 2e 20 
    28d5:	48 89 43 18          	mov    %rax,0x18(%rbx)
    28d9:	48 b8 49 6e 63 72 65 	movabs $0x6573616572636e49,%rax
    28e0:	61 73 65 
    28e3:	48 89 43 20          	mov    %rax,0x20(%rbx)
    28e7:	48 b8 20 53 55 42 4d 	movabs $0x5254494d42555320,%rax
    28ee:	49 54 52 
    28f1:	48 89 43 28          	mov    %rax,0x28(%rbx)
    28f5:	48 b8 5f 4d 41 58 42 	movabs $0x46554258414d5f,%rax
    28fc:	55 46 00 
    28ff:	48 89 43 30          	mov    %rax,0x30(%rbx)
    2903:	89 ef                	mov    %ebp,%edi
    2905:	e8 5e e6 ff ff       	callq  f68 <_init+0x80>
    290a:	b8 ff ff ff ff       	mov    $0xffffffff,%eax
    290f:	e9 e6 01 00 00       	jmpq   2afa <submitr+0x595>
    2914:	48 b8 45 72 72 6f 72 	movabs $0x52203a726f727245,%rax
    291b:	3a 20 52 
    291e:	48 89 03             	mov    %rax,(%rbx)
    2921:	48 b8 65 73 75 6c 74 	movabs $0x747320746c757365,%rax
    2928:	20 73 74 
    292b:	48 89 43 08          	mov    %rax,0x8(%rbx)
    292f:	48 b8 72 69 6e 67 20 	movabs $0x6e6f6320676e6972,%rax
    2936:	63 6f 6e 
    2939:	48 89 43 10          	mov    %rax,0x10(%rbx)
    293d:	48 b8 74 61 69 6e 73 	movabs $0x6e6120736e696174,%rax
    2944:	20 61 6e 
    2947:	48 89 43 18          	mov    %rax,0x18(%rbx)
    294b:	48 b8 20 69 6c 6c 65 	movabs $0x6c6167656c6c6920,%rax
    2952:	67 61 6c 
    2955:	48 89 43 20          	mov    %rax,0x20(%rbx)
    2959:	48 b8 20 6f 72 20 75 	movabs $0x72706e7520726f20,%rax
    2960:	6e 70 72 
    2963:	48 89 43 28          	mov    %rax,0x28(%rbx)
    2967:	48 b8 69 6e 74 61 62 	movabs $0x20656c6261746e69,%rax
    296e:	6c 65 20 
    2971:	48 89 43 30          	mov    %rax,0x30(%rbx)
    2975:	48 b8 63 68 61 72 61 	movabs $0x6574636172616863,%rax
    297c:	63 74 65 
    297f:	48 89 43 38          	mov    %rax,0x38(%rbx)
    2983:	66 c7 43 40 72 2e    	movw   $0x2e72,0x40(%rbx)
    2989:	c6 43 42 00          	movb   $0x0,0x42(%rbx)
    298d:	89 ef                	mov    %ebp,%edi
    298f:	e8 d4 e5 ff ff       	callq  f68 <_init+0x80>
    2994:	b8 ff ff ff ff       	mov    $0xffffffff,%eax
    2999:	e9 5c 01 00 00       	jmpq   2afa <submitr+0x595>
    299e:	48 b8 45 72 72 6f 72 	movabs $0x43203a726f727245,%rax
    29a5:	3a 20 43 
    29a8:	48 89 03             	mov    %rax,(%rbx)
    29ab:	48 b8 6c 69 65 6e 74 	movabs $0x6e7520746e65696c,%rax
    29b2:	20 75 6e 
    29b5:	48 89 43 08          	mov    %rax,0x8(%rbx)
    29b9:	48 b8 61 62 6c 65 20 	movabs $0x206f7420656c6261,%rax
    29c0:	74 6f 20 
    29c3:	48 89 43 10          	mov    %rax,0x10(%rbx)
    29c7:	48 b8 77 72 69 74 65 	movabs $0x6f74206574697277,%rax
    29ce:	20 74 6f 
    29d1:	48 89 43 18          	mov    %rax,0x18(%rbx)
    29d5:	48 b8 20 74 68 65 20 	movabs $0x7365722065687420,%rax
    29dc:	72 65 73 
    29df:	48 89 43 20          	mov    %rax,0x20(%rbx)
    29e3:	48 b8 75 6c 74 20 73 	movabs $0x7672657320746c75,%rax
    29ea:	65 72 76 
    29ed:	48 89 43 28          	mov    %rax,0x28(%rbx)
    29f1:	66 c7 43 30 65 72    	movw   $0x7265,0x30(%rbx)
    29f7:	c6 43 32 00          	movb   $0x0,0x32(%rbx)
    29fb:	89 ef                	mov    %ebp,%edi
    29fd:	e8 66 e5 ff ff       	callq  f68 <_init+0x80>
    2a02:	b8 ff ff ff ff       	mov    $0xffffffff,%eax
    2a07:	e9 ee 00 00 00       	jmpq   2afa <submitr+0x595>
    2a0c:	48 b8 45 72 72 6f 72 	movabs $0x43203a726f727245,%rax
    2a13:	3a 20 43 
    2a16:	48 89 03             	mov    %rax,(%rbx)
    2a19:	48 b8 6c 69 65 6e 74 	movabs $0x6e7520746e65696c,%rax
    2a20:	20 75 6e 
    2a23:	48 89 43 08          	mov    %rax,0x8(%rbx)
    2a27:	48 b8 61 62 6c 65 20 	movabs $0x206f7420656c6261,%rax
    2a2e:	74 6f 20 
    2a31:	48 89 43 10          	mov    %rax,0x10(%rbx)
    2a35:	48 b8 72 65 61 64 20 	movabs $0x7269662064616572,%rax
    2a3c:	66 69 72 
    2a3f:	48 89 43 18          	mov    %rax,0x18(%rbx)
    2a43:	48 b8 73 74 20 68 65 	movabs $0x6564616568207473,%rax
    2a4a:	61 64 65 
    2a4d:	48 89 43 20          	mov    %rax,0x20(%rbx)
    2a51:	48 b8 72 20 66 72 6f 	movabs $0x72206d6f72662072,%rax
    2a58:	6d 20 72 
    2a5b:	48 89 43 28          	mov    %rax,0x28(%rbx)
    2a5f:	48 b8 65 73 75 6c 74 	movabs $0x657320746c757365,%rax
    2a66:	20 73 65 
    2a69:	48 89 43 30          	mov    %rax,0x30(%rbx)
    2a6d:	c7 43 38 72 76 65 72 	movl   $0x72657672,0x38(%rbx)
    2a74:	c6 43 3c 00          	movb   $0x0,0x3c(%rbx)
    2a78:	89 ef                	mov    %ebp,%edi
    2a7a:	e8 e9 e4 ff ff       	callq  f68 <_init+0x80>
    2a7f:	b8 ff ff ff ff       	mov    $0xffffffff,%eax
    2a84:	eb 74                	jmp    2afa <submitr+0x595>
    2a86:	48 b8 45 72 72 6f 72 	movabs $0x43203a726f727245,%rax
    2a8d:	3a 20 43 
    2a90:	48 89 03             	mov    %rax,(%rbx)
    2a93:	48 b8 6c 69 65 6e 74 	movabs $0x6e7520746e65696c,%rax
    2a9a:	20 75 6e 
    2a9d:	48 89 43 08          	mov    %rax,0x8(%rbx)
    2aa1:	48 b8 61 62 6c 65 20 	movabs $0x206f7420656c6261,%rax
    2aa8:	74 6f 20 
    2aab:	48 89 43 10          	mov    %rax,0x10(%rbx)
    2aaf:	48 b8 72 65 61 64 20 	movabs $0x6165682064616572,%rax
    2ab6:	68 65 61 
    2ab9:	48 89 43 18          	mov    %rax,0x18(%rbx)
    2abd:	48 b8 64 65 72 73 20 	movabs $0x6f72662073726564,%rax
    2ac4:	66 72 6f 
    2ac7:	48 89 43 20          	mov    %rax,0x20(%rbx)
    2acb:	48 b8 6d 20 74 68 65 	movabs $0x657220656874206d,%rax
    2ad2:	20 72 65 
    2ad5:	48 89 43 28          	mov    %rax,0x28(%rbx)
    2ad9:	48 b8 73 75 6c 74 20 	movabs $0x72657320746c7573,%rax
    2ae0:	73 65 72 
    2ae3:	48 89 43 30          	mov    %rax,0x30(%rbx)
    2ae7:	c7 43 38 76 65 72 00 	movl   $0x726576,0x38(%rbx)
    2aee:	89 ef                	mov    %ebp,%edi
    2af0:	e8 73 e4 ff ff       	callq  f68 <_init+0x80>
    2af5:	b8 ff ff ff ff       	mov    $0xffffffff,%eax
    2afa:	48 8b 9c 24 58 a0 00 	mov    0xa058(%rsp),%rbx
    2b01:	00 
    2b02:	64 48 33 1c 25 28 00 	xor    %fs:0x28,%rbx
    2b09:	00 00 
    2b0b:	0f 85 fb 01 00 00    	jne    2d0c <submitr+0x7a7>
    2b11:	48 81 c4 68 a0 00 00 	add    $0xa068,%rsp
    2b18:	5b                   	pop    %rbx
    2b19:	5d                   	pop    %rbp
    2b1a:	41 5c                	pop    %r12
    2b1c:	41 5d                	pop    %r13
    2b1e:	41 5e                	pop    %r14
    2b20:	41 5f                	pop    %r15
    2b22:	c3                   	retq   
    2b23:	85 c0                	test   %eax,%eax
    2b25:	74 4e                	je     2b75 <submitr+0x610>
    2b27:	48 8d b4 24 50 20 00 	lea    0x2050(%rsp),%rsi
    2b2e:	00 
    2b2f:	48 8d 7c 24 40       	lea    0x40(%rsp),%rdi
    2b34:	ba 00 20 00 00       	mov    $0x2000,%edx
    2b39:	e8 73 f8 ff ff       	callq  23b1 <rio_readlineb>
    2b3e:	48 85 c0             	test   %rax,%rax
    2b41:	0f 8e 3f ff ff ff    	jle    2a86 <submitr+0x521>
    2b47:	0f b6 94 24 50 20 00 	movzbl 0x2050(%rsp),%edx
    2b4e:	00 
    2b4f:	b8 0d 00 00 00       	mov    $0xd,%eax
    2b54:	29 d0                	sub    %edx,%eax
    2b56:	75 cb                	jne    2b23 <submitr+0x5be>
    2b58:	0f b6 94 24 51 20 00 	movzbl 0x2051(%rsp),%edx
    2b5f:	00 
    2b60:	b8 0a 00 00 00       	mov    $0xa,%eax
    2b65:	29 d0                	sub    %edx,%eax
    2b67:	75 ba                	jne    2b23 <submitr+0x5be>
    2b69:	0f b6 84 24 52 20 00 	movzbl 0x2052(%rsp),%eax
    2b70:	00 
    2b71:	f7 d8                	neg    %eax
    2b73:	eb ae                	jmp    2b23 <submitr+0x5be>
    2b75:	48 8d b4 24 50 20 00 	lea    0x2050(%rsp),%rsi
    2b7c:	00 
    2b7d:	48 8d 7c 24 40       	lea    0x40(%rsp),%rdi
    2b82:	ba 00 20 00 00       	mov    $0x2000,%edx
    2b87:	e8 25 f8 ff ff       	callq  23b1 <rio_readlineb>
    2b8c:	48 85 c0             	test   %rax,%rax
    2b8f:	7e 66                	jle    2bf7 <submitr+0x692>
    2b91:	44 8b 44 24 2c       	mov    0x2c(%rsp),%r8d
    2b96:	41 81 f8 c8 00 00 00 	cmp    $0xc8,%r8d
    2b9d:	0f 85 d7 00 00 00    	jne    2c7a <submitr+0x715>
    2ba3:	48 8d b4 24 50 20 00 	lea    0x2050(%rsp),%rsi
    2baa:	00 
    2bab:	48 89 df             	mov    %rbx,%rdi
    2bae:	e8 7d e3 ff ff       	callq  f30 <_init+0x48>
    2bb3:	89 ef                	mov    %ebp,%edi
    2bb5:	e8 ae e3 ff ff       	callq  f68 <_init+0x80>
    2bba:	0f b6 03             	movzbl (%rbx),%eax
    2bbd:	ba 4f 00 00 00       	mov    $0x4f,%edx
    2bc2:	29 c2                	sub    %eax,%edx
    2bc4:	0f 85 e9 00 00 00    	jne    2cb3 <submitr+0x74e>
    2bca:	0f b6 4b 01          	movzbl 0x1(%rbx),%ecx
    2bce:	b8 4b 00 00 00       	mov    $0x4b,%eax
    2bd3:	29 c8                	sub    %ecx,%eax
    2bd5:	0f 85 da 00 00 00    	jne    2cb5 <submitr+0x750>
    2bdb:	0f b6 4b 02          	movzbl 0x2(%rbx),%ecx
    2bdf:	b8 0a 00 00 00       	mov    $0xa,%eax
    2be4:	29 c8                	sub    %ecx,%eax
    2be6:	0f 85 c9 00 00 00    	jne    2cb5 <submitr+0x750>
    2bec:	0f b6 43 03          	movzbl 0x3(%rbx),%eax
    2bf0:	f7 d8                	neg    %eax
    2bf2:	e9 be 00 00 00       	jmpq   2cb5 <submitr+0x750>
    2bf7:	48 b8 45 72 72 6f 72 	movabs $0x43203a726f727245,%rax
    2bfe:	3a 20 43 
    2c01:	48 89 03             	mov    %rax,(%rbx)
    2c04:	48 b8 6c 69 65 6e 74 	movabs $0x6e7520746e65696c,%rax
    2c0b:	20 75 6e 
    2c0e:	48 89 43 08          	mov    %rax,0x8(%rbx)
    2c12:	48 b8 61 62 6c 65 20 	movabs $0x206f7420656c6261,%rax
    2c19:	74 6f 20 
    2c1c:	48 89 43 10          	mov    %rax,0x10(%rbx)
    2c20:	48 b8 72 65 61 64 20 	movabs $0x6174732064616572,%rax
    2c27:	73 74 61 
    2c2a:	48 89 43 18          	mov    %rax,0x18(%rbx)
    2c2e:	48 b8 74 75 73 20 6d 	movabs $0x7373656d20737574,%rax
    2c35:	65 73 73 
    2c38:	48 89 43 20          	mov    %rax,0x20(%rbx)
    2c3c:	48 b8 61 67 65 20 66 	movabs $0x6d6f726620656761,%rax
    2c43:	72 6f 6d 
    2c46:	48 89 43 28          	mov    %rax,0x28(%rbx)
    2c4a:	48 b8 20 72 65 73 75 	movabs $0x20746c7573657220,%rax
    2c51:	6c 74 20 
    2c54:	48 89 43 30          	mov    %rax,0x30(%rbx)
    2c58:	c7 43 38 73 65 72 76 	movl   $0x76726573,0x38(%rbx)
    2c5f:	66 c7 43 3c 65 72    	movw   $0x7265,0x3c(%rbx)
    2c65:	c6 43 3e 00          	movb   $0x0,0x3e(%rbx)
    2c69:	89 ef                	mov    %ebp,%edi
    2c6b:	e8 f8 e2 ff ff       	callq  f68 <_init+0x80>
    2c70:	b8 ff ff ff ff       	mov    $0xffffffff,%eax
    2c75:	e9 80 fe ff ff       	jmpq   2afa <submitr+0x595>
    2c7a:	4c 8d 8c 24 50 80 00 	lea    0x8050(%rsp),%r9
    2c81:	00 
    2c82:	48 8d 0d ef 0b 00 00 	lea    0xbef(%rip),%rcx        # 3878 <trans_char+0x78>
    2c89:	48 c7 c2 ff ff ff ff 	mov    $0xffffffffffffffff,%rdx
    2c90:	be 01 00 00 00       	mov    $0x1,%esi
    2c95:	48 89 df             	mov    %rbx,%rdi
    2c98:	b8 00 00 00 00       	mov    $0x0,%eax
    2c9d:	e8 6e e3 ff ff       	callq  1010 <_init+0x128>
    2ca2:	89 ef                	mov    %ebp,%edi
    2ca4:	e8 bf e2 ff ff       	callq  f68 <_init+0x80>
    2ca9:	b8 ff ff ff ff       	mov    $0xffffffff,%eax
    2cae:	e9 47 fe ff ff       	jmpq   2afa <submitr+0x595>
    2cb3:	89 d0                	mov    %edx,%eax
    2cb5:	f7 d8                	neg    %eax
    2cb7:	0f 84 3d fe ff ff    	je     2afa <submitr+0x595>
    2cbd:	b9 05 00 00 00       	mov    $0x5,%ecx
    2cc2:	48 8d 3d f7 0b 00 00 	lea    0xbf7(%rip),%rdi        # 38c0 <trans_char+0xc0>
    2cc9:	48 89 de             	mov    %rbx,%rsi
    2ccc:	f3 a6                	repz cmpsb %es:(%rdi),%ds:(%rsi)
    2cce:	0f 97 c0             	seta   %al
    2cd1:	0f 92 c1             	setb   %cl
    2cd4:	29 c8                	sub    %ecx,%eax
    2cd6:	0f be c0             	movsbl %al,%eax
    2cd9:	85 c0                	test   %eax,%eax
    2cdb:	0f 84 19 fe ff ff    	je     2afa <submitr+0x595>
    2ce1:	85 d2                	test   %edx,%edx
    2ce3:	75 13                	jne    2cf8 <submitr+0x793>
    2ce5:	0f b6 43 01          	movzbl 0x1(%rbx),%eax
    2ce9:	ba 4b 00 00 00       	mov    $0x4b,%edx
    2cee:	29 c2                	sub    %eax,%edx
    2cf0:	75 06                	jne    2cf8 <submitr+0x793>
    2cf2:	0f b6 53 02          	movzbl 0x2(%rbx),%edx
    2cf6:	f7 da                	neg    %edx
    2cf8:	89 d0                	mov    %edx,%eax
    2cfa:	f7 d8                	neg    %eax
    2cfc:	0f 84 f8 fd ff ff    	je     2afa <submitr+0x595>
    2d02:	b8 ff ff ff ff       	mov    $0xffffffff,%eax
    2d07:	e9 ee fd ff ff       	jmpq   2afa <submitr+0x595>
    2d0c:	e8 37 e2 ff ff       	callq  f48 <_init+0x60>

0000000000002d11 <init_timeout>:
    2d11:	85 ff                	test   %edi,%edi
    2d13:	74 20                	je     2d35 <init_timeout+0x24>
    2d15:	53                   	push   %rbx
    2d16:	89 fb                	mov    %edi,%ebx
    2d18:	85 ff                	test   %edi,%edi
    2d1a:	78 1b                	js     2d37 <init_timeout+0x26>
    2d1c:	48 8d 35 75 f5 ff ff 	lea    -0xa8b(%rip),%rsi        # 2298 <sigalrm_handler>
    2d23:	bf 0e 00 00 00       	mov    $0xe,%edi
    2d28:	e8 4b e2 ff ff       	callq  f78 <_init+0x90>
    2d2d:	89 df                	mov    %ebx,%edi
    2d2f:	e8 2c e2 ff ff       	callq  f60 <_init+0x78>
    2d34:	5b                   	pop    %rbx
    2d35:	f3 c3                	repz retq 
    2d37:	bb 00 00 00 00       	mov    $0x0,%ebx
    2d3c:	eb de                	jmp    2d1c <init_timeout+0xb>

0000000000002d3e <init_driver>:
    2d3e:	41 54                	push   %r12
    2d40:	55                   	push   %rbp
    2d41:	53                   	push   %rbx
    2d42:	48 83 ec 20          	sub    $0x20,%rsp
    2d46:	48 89 fd             	mov    %rdi,%rbp
    2d49:	64 48 8b 04 25 28 00 	mov    %fs:0x28,%rax
    2d50:	00 00 
    2d52:	48 89 44 24 18       	mov    %rax,0x18(%rsp)
    2d57:	31 c0                	xor    %eax,%eax
    2d59:	be 01 00 00 00       	mov    $0x1,%esi
    2d5e:	bf 0d 00 00 00       	mov    $0xd,%edi
    2d63:	e8 10 e2 ff ff       	callq  f78 <_init+0x90>
    2d68:	be 01 00 00 00       	mov    $0x1,%esi
    2d6d:	bf 1d 00 00 00       	mov    $0x1d,%edi
    2d72:	e8 01 e2 ff ff       	callq  f78 <_init+0x90>
    2d77:	be 01 00 00 00       	mov    $0x1,%esi
    2d7c:	bf 1d 00 00 00       	mov    $0x1d,%edi
    2d81:	e8 f2 e1 ff ff       	callq  f78 <_init+0x90>
    2d86:	ba 00 00 00 00       	mov    $0x0,%edx
    2d8b:	be 01 00 00 00       	mov    $0x1,%esi
    2d90:	bf 02 00 00 00       	mov    $0x2,%edi
    2d95:	e8 7e e2 ff ff       	callq  1018 <_init+0x130>
    2d9a:	85 c0                	test   %eax,%eax
    2d9c:	0f 88 99 00 00 00    	js     2e3b <init_driver+0xfd>
    2da2:	89 c3                	mov    %eax,%ebx
    2da4:	48 8d 3d 5f 06 00 00 	lea    0x65f(%rip),%rdi        # 340a <_IO_stdin_used+0x37a>
    2dab:	e8 d0 e1 ff ff       	callq  f80 <_init+0x98>
    2db0:	48 85 c0             	test   %rax,%rax
    2db3:	0f 84 ce 00 00 00    	je     2e87 <init_driver+0x149>
    2db9:	48 c7 04 24 00 00 00 	movq   $0x0,(%rsp)
    2dc0:	00 
    2dc1:	48 c7 44 24 08 00 00 	movq   $0x0,0x8(%rsp)
    2dc8:	00 00 
    2dca:	66 c7 04 24 02 00    	movw   $0x2,(%rsp)
    2dd0:	48 63 50 14          	movslq 0x14(%rax),%rdx
    2dd4:	48 8b 40 18          	mov    0x18(%rax),%rax
    2dd8:	48 8b 30             	mov    (%rax),%rsi
    2ddb:	48 8d 7c 24 04       	lea    0x4(%rsp),%rdi
    2de0:	b9 0c 00 00 00       	mov    $0xc,%ecx
    2de5:	e8 9e e1 ff ff       	callq  f88 <_init+0xa0>
    2dea:	66 c7 44 24 02 3c 9a 	movw   $0x9a3c,0x2(%rsp)
    2df1:	ba 10 00 00 00       	mov    $0x10,%edx
    2df6:	48 89 e6             	mov    %rsp,%rsi
    2df9:	89 df                	mov    %ebx,%edi
    2dfb:	e8 f8 e1 ff ff       	callq  ff8 <_init+0x110>
    2e00:	85 c0                	test   %eax,%eax
    2e02:	0f 88 e7 00 00 00    	js     2eef <init_driver+0x1b1>
    2e08:	89 df                	mov    %ebx,%edi
    2e0a:	e8 59 e1 ff ff       	callq  f68 <_init+0x80>
    2e0f:	66 c7 45 00 4f 4b    	movw   $0x4b4f,0x0(%rbp)
    2e15:	c6 45 02 00          	movb   $0x0,0x2(%rbp)
    2e19:	b8 00 00 00 00       	mov    $0x0,%eax
    2e1e:	48 8b 4c 24 18       	mov    0x18(%rsp),%rcx
    2e23:	64 48 33 0c 25 28 00 	xor    %fs:0x28,%rcx
    2e2a:	00 00 
    2e2c:	0f 85 10 01 00 00    	jne    2f42 <init_driver+0x204>
    2e32:	48 83 c4 20          	add    $0x20,%rsp
    2e36:	5b                   	pop    %rbx
    2e37:	5d                   	pop    %rbp
    2e38:	41 5c                	pop    %r12
    2e3a:	c3                   	retq   
    2e3b:	48 b8 45 72 72 6f 72 	movabs $0x43203a726f727245,%rax
    2e42:	3a 20 43 
    2e45:	48 89 45 00          	mov    %rax,0x0(%rbp)
    2e49:	48 b8 6c 69 65 6e 74 	movabs $0x6e7520746e65696c,%rax
    2e50:	20 75 6e 
    2e53:	48 89 45 08          	mov    %rax,0x8(%rbp)
    2e57:	48 b8 61 62 6c 65 20 	movabs $0x206f7420656c6261,%rax
    2e5e:	74 6f 20 
    2e61:	48 89 45 10          	mov    %rax,0x10(%rbp)
    2e65:	48 b8 63 72 65 61 74 	movabs $0x7320657461657263,%rax
    2e6c:	65 20 73 
    2e6f:	48 89 45 18          	mov    %rax,0x18(%rbp)
    2e73:	c7 45 20 6f 63 6b 65 	movl   $0x656b636f,0x20(%rbp)
    2e7a:	66 c7 45 24 74 00    	movw   $0x74,0x24(%rbp)
    2e80:	b8 ff ff ff ff       	mov    $0xffffffff,%eax
    2e85:	eb 97                	jmp    2e1e <init_driver+0xe0>
    2e87:	48 b8 45 72 72 6f 72 	movabs $0x44203a726f727245,%rax
    2e8e:	3a 20 44 
    2e91:	48 89 45 00          	mov    %rax,0x0(%rbp)
    2e95:	48 b8 4e 53 20 69 73 	movabs $0x6e7520736920534e,%rax
    2e9c:	20 75 6e 
    2e9f:	48 89 45 08          	mov    %rax,0x8(%rbp)
    2ea3:	48 b8 61 62 6c 65 20 	movabs $0x206f7420656c6261,%rax
    2eaa:	74 6f 20 
    2ead:	48 89 45 10          	mov    %rax,0x10(%rbp)
    2eb1:	48 b8 72 65 73 6f 6c 	movabs $0x2065766c6f736572,%rax
    2eb8:	76 65 20 
    2ebb:	48 89 45 18          	mov    %rax,0x18(%rbp)
    2ebf:	48 b8 73 65 72 76 65 	movabs $0x6120726576726573,%rax
    2ec6:	72 20 61 
    2ec9:	48 89 45 20          	mov    %rax,0x20(%rbp)
    2ecd:	c7 45 28 64 64 72 65 	movl   $0x65726464,0x28(%rbp)
    2ed4:	66 c7 45 2c 73 73    	movw   $0x7373,0x2c(%rbp)
    2eda:	c6 45 2e 00          	movb   $0x0,0x2e(%rbp)
    2ede:	89 df                	mov    %ebx,%edi
    2ee0:	e8 83 e0 ff ff       	callq  f68 <_init+0x80>
    2ee5:	b8 ff ff ff ff       	mov    $0xffffffff,%eax
    2eea:	e9 2f ff ff ff       	jmpq   2e1e <init_driver+0xe0>
    2eef:	48 b8 45 72 72 6f 72 	movabs $0x55203a726f727245,%rax
    2ef6:	3a 20 55 
    2ef9:	48 89 45 00          	mov    %rax,0x0(%rbp)
    2efd:	48 b8 6e 61 62 6c 65 	movabs $0x6f7420656c62616e,%rax
    2f04:	20 74 6f 
    2f07:	48 89 45 08          	mov    %rax,0x8(%rbp)
    2f0b:	48 b8 20 63 6f 6e 6e 	movabs $0x7463656e6e6f6320,%rax
    2f12:	65 63 74 
    2f15:	48 89 45 10          	mov    %rax,0x10(%rbp)
    2f19:	48 b8 20 74 6f 20 73 	movabs $0x76726573206f7420,%rax
    2f20:	65 72 76 
    2f23:	48 89 45 18          	mov    %rax,0x18(%rbp)
    2f27:	66 c7 45 20 65 72    	movw   $0x7265,0x20(%rbp)
    2f2d:	c6 45 22 00          	movb   $0x0,0x22(%rbp)
    2f31:	89 df                	mov    %ebx,%edi
    2f33:	e8 30 e0 ff ff       	callq  f68 <_init+0x80>
    2f38:	b8 ff ff ff ff       	mov    $0xffffffff,%eax
    2f3d:	e9 dc fe ff ff       	jmpq   2e1e <init_driver+0xe0>
    2f42:	e8 01 e0 ff ff       	callq  f48 <_init+0x60>

0000000000002f47 <driver_post>:
    2f47:	53                   	push   %rbx
    2f48:	4c 89 cb             	mov    %r9,%rbx
    2f4b:	45 85 c0             	test   %r8d,%r8d
    2f4e:	75 18                	jne    2f68 <driver_post+0x21>
    2f50:	48 85 ff             	test   %rdi,%rdi
    2f53:	74 05                	je     2f5a <driver_post+0x13>
    2f55:	80 3f 00             	cmpb   $0x0,(%rdi)
    2f58:	75 37                	jne    2f91 <driver_post+0x4a>
    2f5a:	66 c7 03 4f 4b       	movw   $0x4b4f,(%rbx)
    2f5f:	c6 43 02 00          	movb   $0x0,0x2(%rbx)
    2f63:	44 89 c0             	mov    %r8d,%eax
    2f66:	5b                   	pop    %rbx
    2f67:	c3                   	retq   
    2f68:	48 89 ca             	mov    %rcx,%rdx
    2f6b:	48 8d 35 53 09 00 00 	lea    0x953(%rip),%rsi        # 38c5 <trans_char+0xc5>
    2f72:	bf 01 00 00 00       	mov    $0x1,%edi
    2f77:	b8 00 00 00 00       	mov    $0x0,%eax
    2f7c:	e8 47 e0 ff ff       	callq  fc8 <_init+0xe0>
    2f81:	66 c7 03 4f 4b       	movw   $0x4b4f,(%rbx)
    2f86:	c6 43 02 00          	movb   $0x0,0x2(%rbx)
    2f8a:	b8 00 00 00 00       	mov    $0x0,%eax
    2f8f:	eb d5                	jmp    2f66 <driver_post+0x1f>
    2f91:	48 83 ec 08          	sub    $0x8,%rsp
    2f95:	41 51                	push   %r9
    2f97:	49 89 c9             	mov    %rcx,%r9
    2f9a:	49 89 d0             	mov    %rdx,%r8
    2f9d:	48 89 f9             	mov    %rdi,%rcx
    2fa0:	48 89 f2             	mov    %rsi,%rdx
    2fa3:	be 9a 3c 00 00       	mov    $0x3c9a,%esi
    2fa8:	48 8d 3d 5b 04 00 00 	lea    0x45b(%rip),%rdi        # 340a <_IO_stdin_used+0x37a>
    2faf:	e8 b1 f5 ff ff       	callq  2565 <submitr>
    2fb4:	48 83 c4 10          	add    $0x10,%rsp
    2fb8:	eb ac                	jmp    2f66 <driver_post+0x1f>

0000000000002fba <check>:
    2fba:	89 f8                	mov    %edi,%eax
    2fbc:	c1 e8 1c             	shr    $0x1c,%eax
    2fbf:	85 c0                	test   %eax,%eax
    2fc1:	74 1d                	je     2fe0 <check+0x26>
    2fc3:	b9 00 00 00 00       	mov    $0x0,%ecx
    2fc8:	83 f9 1f             	cmp    $0x1f,%ecx
    2fcb:	7f 0d                	jg     2fda <check+0x20>
    2fcd:	89 f8                	mov    %edi,%eax
    2fcf:	d3 e8                	shr    %cl,%eax
    2fd1:	3c 0a                	cmp    $0xa,%al
    2fd3:	74 11                	je     2fe6 <check+0x2c>
    2fd5:	83 c1 08             	add    $0x8,%ecx
    2fd8:	eb ee                	jmp    2fc8 <check+0xe>
    2fda:	b8 01 00 00 00       	mov    $0x1,%eax
    2fdf:	c3                   	retq   
    2fe0:	b8 00 00 00 00       	mov    $0x0,%eax
    2fe5:	c3                   	retq   
    2fe6:	b8 00 00 00 00       	mov    $0x0,%eax
    2feb:	c3                   	retq   

0000000000002fec <gencookie>:
    2fec:	53                   	push   %rbx
    2fed:	83 c7 01             	add    $0x1,%edi
    2ff0:	e8 2b df ff ff       	callq  f20 <_init+0x38>
    2ff5:	e8 ae df ff ff       	callq  fa8 <_init+0xc0>
    2ffa:	89 c3                	mov    %eax,%ebx
    2ffc:	89 c7                	mov    %eax,%edi
    2ffe:	e8 b7 ff ff ff       	callq  2fba <check>
    3003:	85 c0                	test   %eax,%eax
    3005:	74 ee                	je     2ff5 <gencookie+0x9>
    3007:	89 d8                	mov    %ebx,%eax
    3009:	5b                   	pop    %rbx
    300a:	c3                   	retq   
    300b:	0f 1f 44 00 00       	nopl   0x0(%rax,%rax,1)

0000000000003010 <__libc_csu_init>:
    3010:	41 57                	push   %r15
    3012:	41 56                	push   %r14
    3014:	41 89 ff             	mov    %edi,%r15d
    3017:	41 55                	push   %r13
    3019:	41 54                	push   %r12
    301b:	4c 8d 25 b6 1c 20 00 	lea    0x201cb6(%rip),%r12        # 204cd8 <__frame_dummy_init_array_entry>
    3022:	55                   	push   %rbp
    3023:	48 8d 2d b6 1c 20 00 	lea    0x201cb6(%rip),%rbp        # 204ce0 <__init_array_end>
    302a:	53                   	push   %rbx
    302b:	49 89 f6             	mov    %rsi,%r14
    302e:	49 89 d5             	mov    %rdx,%r13
    3031:	4c 29 e5             	sub    %r12,%rbp
    3034:	48 83 ec 08          	sub    $0x8,%rsp
    3038:	48 c1 fd 03          	sar    $0x3,%rbp
    303c:	e8 a7 de ff ff       	callq  ee8 <_init>
    3041:	48 85 ed             	test   %rbp,%rbp
    3044:	74 20                	je     3066 <__libc_csu_init+0x56>
    3046:	31 db                	xor    %ebx,%ebx
    3048:	0f 1f 84 00 00 00 00 	nopl   0x0(%rax,%rax,1)
    304f:	00 
    3050:	4c 89 ea             	mov    %r13,%rdx
    3053:	4c 89 f6             	mov    %r14,%rsi
    3056:	44 89 ff             	mov    %r15d,%edi
    3059:	41 ff 14 dc          	callq  *(%r12,%rbx,8)
    305d:	48 83 c3 01          	add    $0x1,%rbx
    3061:	48 39 dd             	cmp    %rbx,%rbp
    3064:	75 ea                	jne    3050 <__libc_csu_init+0x40>
    3066:	48 83 c4 08          	add    $0x8,%rsp
    306a:	5b                   	pop    %rbx
    306b:	5d                   	pop    %rbp
    306c:	41 5c                	pop    %r12
    306e:	41 5d                	pop    %r13
    3070:	41 5e                	pop    %r14
    3072:	41 5f                	pop    %r15
    3074:	c3                   	retq   
    3075:	90                   	nop
    3076:	66 2e 0f 1f 84 00 00 	nopw   %cs:0x0(%rax,%rax,1)
    307d:	00 00 00 

0000000000003080 <__libc_csu_fini>:
    3080:	f3 c3                	repz retq 

Disassembly of section .fini:

0000000000003084 <_fini>:
    3084:	48 83 ec 08          	sub    $0x8,%rsp
    3088:	48 83 c4 08          	add    $0x8,%rsp
    308c:	c3                   	retq   
