
bomb:     file format elf64-x86-64


Disassembly of section .init:

0000000000001558 <_init>:
    1558:	48 83 ec 08          	sub    $0x8,%rsp
    155c:	48 8b 05 9d 49 20 00 	mov    0x20499d(%rip),%rax        # 205f00 <_GLOBAL_OFFSET_TABLE_+0xb0>
    1563:	48 85 c0             	test   %rax,%rax
    1566:	74 02                	je     156a <_init+0x12>
    1568:	ff d0                	callq  *%rax
    156a:	48 83 c4 08          	add    $0x8,%rsp
    156e:	c3                   	retq   

Disassembly of section .plt:

0000000000001570 <.plt>:
    1570:	ff 35 e2 48 20 00    	pushq  0x2048e2(%rip)        # 205e58 <_GLOBAL_OFFSET_TABLE_+0x8>
    1576:	ff 25 e4 48 20 00    	jmpq   *0x2048e4(%rip)        # 205e60 <_GLOBAL_OFFSET_TABLE_+0x10>
    157c:	0f 1f 40 00          	nopl   0x0(%rax)

Disassembly of section .plt.got:

0000000000001580 <.plt.got>:
    1580:	ff 25 e2 48 20 00    	jmpq   *0x2048e2(%rip)        # 205e68 <_GLOBAL_OFFSET_TABLE_+0x18>
    1586:	66 90                	xchg   %ax,%ax
    1588:	ff 25 ea 48 20 00    	jmpq   *0x2048ea(%rip)        # 205e78 <_GLOBAL_OFFSET_TABLE_+0x28>
    158e:	66 90                	xchg   %ax,%ax
    1590:	ff 25 ea 48 20 00    	jmpq   *0x2048ea(%rip)        # 205e80 <_GLOBAL_OFFSET_TABLE_+0x30>
    1596:	66 90                	xchg   %ax,%ax
    1598:	ff 25 ea 48 20 00    	jmpq   *0x2048ea(%rip)        # 205e88 <_GLOBAL_OFFSET_TABLE_+0x38>
    159e:	66 90                	xchg   %ax,%ax
    15a0:	ff 25 ea 48 20 00    	jmpq   *0x2048ea(%rip)        # 205e90 <_GLOBAL_OFFSET_TABLE_+0x40>
    15a6:	66 90                	xchg   %ax,%ax
    15a8:	ff 25 ea 48 20 00    	jmpq   *0x2048ea(%rip)        # 205e98 <_GLOBAL_OFFSET_TABLE_+0x48>
    15ae:	66 90                	xchg   %ax,%ax
    15b0:	ff 25 ea 48 20 00    	jmpq   *0x2048ea(%rip)        # 205ea0 <_GLOBAL_OFFSET_TABLE_+0x50>
    15b6:	66 90                	xchg   %ax,%ax
    15b8:	ff 25 ea 48 20 00    	jmpq   *0x2048ea(%rip)        # 205ea8 <_GLOBAL_OFFSET_TABLE_+0x58>
    15be:	66 90                	xchg   %ax,%ax
    15c0:	ff 25 ea 48 20 00    	jmpq   *0x2048ea(%rip)        # 205eb0 <_GLOBAL_OFFSET_TABLE_+0x60>
    15c6:	66 90                	xchg   %ax,%ax
    15c8:	ff 25 ea 48 20 00    	jmpq   *0x2048ea(%rip)        # 205eb8 <_GLOBAL_OFFSET_TABLE_+0x68>
    15ce:	66 90                	xchg   %ax,%ax
    15d0:	ff 25 ea 48 20 00    	jmpq   *0x2048ea(%rip)        # 205ec0 <_GLOBAL_OFFSET_TABLE_+0x70>
    15d6:	66 90                	xchg   %ax,%ax
    15d8:	ff 25 ea 48 20 00    	jmpq   *0x2048ea(%rip)        # 205ec8 <_GLOBAL_OFFSET_TABLE_+0x78>
    15de:	66 90                	xchg   %ax,%ax
    15e0:	ff 25 ea 48 20 00    	jmpq   *0x2048ea(%rip)        # 205ed0 <_GLOBAL_OFFSET_TABLE_+0x80>
    15e6:	66 90                	xchg   %ax,%ax
    15e8:	ff 25 f2 48 20 00    	jmpq   *0x2048f2(%rip)        # 205ee0 <_GLOBAL_OFFSET_TABLE_+0x90>
    15ee:	66 90                	xchg   %ax,%ax
    15f0:	ff 25 f2 48 20 00    	jmpq   *0x2048f2(%rip)        # 205ee8 <_GLOBAL_OFFSET_TABLE_+0x98>
    15f6:	66 90                	xchg   %ax,%ax
    15f8:	ff 25 f2 48 20 00    	jmpq   *0x2048f2(%rip)        # 205ef0 <_GLOBAL_OFFSET_TABLE_+0xa0>
    15fe:	66 90                	xchg   %ax,%ax
    1600:	ff 25 f2 48 20 00    	jmpq   *0x2048f2(%rip)        # 205ef8 <_GLOBAL_OFFSET_TABLE_+0xa8>
    1606:	66 90                	xchg   %ax,%ax
    1608:	ff 25 fa 48 20 00    	jmpq   *0x2048fa(%rip)        # 205f08 <_GLOBAL_OFFSET_TABLE_+0xb8>
    160e:	66 90                	xchg   %ax,%ax
    1610:	ff 25 fa 48 20 00    	jmpq   *0x2048fa(%rip)        # 205f10 <_GLOBAL_OFFSET_TABLE_+0xc0>
    1616:	66 90                	xchg   %ax,%ax
    1618:	ff 25 fa 48 20 00    	jmpq   *0x2048fa(%rip)        # 205f18 <_GLOBAL_OFFSET_TABLE_+0xc8>
    161e:	66 90                	xchg   %ax,%ax
    1620:	ff 25 fa 48 20 00    	jmpq   *0x2048fa(%rip)        # 205f20 <_GLOBAL_OFFSET_TABLE_+0xd0>
    1626:	66 90                	xchg   %ax,%ax
    1628:	ff 25 fa 48 20 00    	jmpq   *0x2048fa(%rip)        # 205f28 <_GLOBAL_OFFSET_TABLE_+0xd8>
    162e:	66 90                	xchg   %ax,%ax
    1630:	ff 25 fa 48 20 00    	jmpq   *0x2048fa(%rip)        # 205f30 <_GLOBAL_OFFSET_TABLE_+0xe0>
    1636:	66 90                	xchg   %ax,%ax
    1638:	ff 25 fa 48 20 00    	jmpq   *0x2048fa(%rip)        # 205f38 <_GLOBAL_OFFSET_TABLE_+0xe8>
    163e:	66 90                	xchg   %ax,%ax
    1640:	ff 25 fa 48 20 00    	jmpq   *0x2048fa(%rip)        # 205f40 <_GLOBAL_OFFSET_TABLE_+0xf0>
    1646:	66 90                	xchg   %ax,%ax
    1648:	ff 25 fa 48 20 00    	jmpq   *0x2048fa(%rip)        # 205f48 <_GLOBAL_OFFSET_TABLE_+0xf8>
    164e:	66 90                	xchg   %ax,%ax
    1650:	ff 25 02 49 20 00    	jmpq   *0x204902(%rip)        # 205f58 <_GLOBAL_OFFSET_TABLE_+0x108>
    1656:	66 90                	xchg   %ax,%ax
    1658:	ff 25 02 49 20 00    	jmpq   *0x204902(%rip)        # 205f60 <_GLOBAL_OFFSET_TABLE_+0x110>
    165e:	66 90                	xchg   %ax,%ax
    1660:	ff 25 02 49 20 00    	jmpq   *0x204902(%rip)        # 205f68 <_GLOBAL_OFFSET_TABLE_+0x118>
    1666:	66 90                	xchg   %ax,%ax
    1668:	ff 25 02 49 20 00    	jmpq   *0x204902(%rip)        # 205f70 <_GLOBAL_OFFSET_TABLE_+0x120>
    166e:	66 90                	xchg   %ax,%ax
    1670:	ff 25 02 49 20 00    	jmpq   *0x204902(%rip)        # 205f78 <_GLOBAL_OFFSET_TABLE_+0x128>
    1676:	66 90                	xchg   %ax,%ax
    1678:	ff 25 02 49 20 00    	jmpq   *0x204902(%rip)        # 205f80 <_GLOBAL_OFFSET_TABLE_+0x130>
    167e:	66 90                	xchg   %ax,%ax
    1680:	ff 25 02 49 20 00    	jmpq   *0x204902(%rip)        # 205f88 <_GLOBAL_OFFSET_TABLE_+0x138>
    1686:	66 90                	xchg   %ax,%ax
    1688:	ff 25 0a 49 20 00    	jmpq   *0x20490a(%rip)        # 205f98 <_GLOBAL_OFFSET_TABLE_+0x148>
    168e:	66 90                	xchg   %ax,%ax
    1690:	ff 25 0a 49 20 00    	jmpq   *0x20490a(%rip)        # 205fa0 <_GLOBAL_OFFSET_TABLE_+0x150>
    1696:	66 90                	xchg   %ax,%ax
    1698:	ff 25 0a 49 20 00    	jmpq   *0x20490a(%rip)        # 205fa8 <_GLOBAL_OFFSET_TABLE_+0x158>
    169e:	66 90                	xchg   %ax,%ax
    16a0:	ff 25 0a 49 20 00    	jmpq   *0x20490a(%rip)        # 205fb0 <_GLOBAL_OFFSET_TABLE_+0x160>
    16a6:	66 90                	xchg   %ax,%ax
    16a8:	ff 25 0a 49 20 00    	jmpq   *0x20490a(%rip)        # 205fb8 <_GLOBAL_OFFSET_TABLE_+0x168>
    16ae:	66 90                	xchg   %ax,%ax
    16b0:	ff 25 0a 49 20 00    	jmpq   *0x20490a(%rip)        # 205fc0 <_GLOBAL_OFFSET_TABLE_+0x170>
    16b6:	66 90                	xchg   %ax,%ax
    16b8:	ff 25 0a 49 20 00    	jmpq   *0x20490a(%rip)        # 205fc8 <_GLOBAL_OFFSET_TABLE_+0x178>
    16be:	66 90                	xchg   %ax,%ax
    16c0:	ff 25 0a 49 20 00    	jmpq   *0x20490a(%rip)        # 205fd0 <_GLOBAL_OFFSET_TABLE_+0x180>
    16c6:	66 90                	xchg   %ax,%ax
    16c8:	ff 25 0a 49 20 00    	jmpq   *0x20490a(%rip)        # 205fd8 <_GLOBAL_OFFSET_TABLE_+0x188>
    16ce:	66 90                	xchg   %ax,%ax
    16d0:	ff 25 0a 49 20 00    	jmpq   *0x20490a(%rip)        # 205fe0 <_GLOBAL_OFFSET_TABLE_+0x190>
    16d6:	66 90                	xchg   %ax,%ax

Disassembly of section .text:

00000000000016e0 <_start>:
    16e0:	31 ed                	xor    %ebp,%ebp
    16e2:	49 89 d1             	mov    %rdx,%r9
    16e5:	5e                   	pop    %rsi
    16e6:	48 89 e2             	mov    %rsp,%rdx
    16e9:	48 83 e4 f0          	and    $0xfffffffffffffff0,%rsp
    16ed:	50                   	push   %rax
    16ee:	54                   	push   %rsp
    16ef:	4c 8d 05 ba 27 00 00 	lea    0x27ba(%rip),%r8        # 3eb0 <__libc_csu_fini>
    16f6:	48 8d 0d 43 27 00 00 	lea    0x2743(%rip),%rcx        # 3e40 <__libc_csu_init>
    16fd:	48 8d 3d 0c 01 00 00 	lea    0x10c(%rip),%rdi        # 1810 <main>
    1704:	ff 15 ce 47 20 00    	callq  *0x2047ce(%rip)        # 205ed8 <_GLOBAL_OFFSET_TABLE_+0x88>
    170a:	f4                   	hlt    
    170b:	0f 1f 44 00 00       	nopl   0x0(%rax,%rax,1)

0000000000001710 <deregister_tm_clones>:
    1710:	48 8d 3d 29 49 20 00 	lea    0x204929(%rip),%rdi        # 206040 <__TMC_END__>
    1717:	48 8d 05 29 49 20 00 	lea    0x204929(%rip),%rax        # 206047 <__TMC_END__+0x7>
    171e:	55                   	push   %rbp
    171f:	48 29 f8             	sub    %rdi,%rax
    1722:	48 89 e5             	mov    %rsp,%rbp
    1725:	48 83 f8 0e          	cmp    $0xe,%rax
    1729:	76 15                	jbe    1740 <deregister_tm_clones+0x30>
    172b:	48 8b 05 3e 47 20 00 	mov    0x20473e(%rip),%rax        # 205e70 <_GLOBAL_OFFSET_TABLE_+0x20>
    1732:	48 85 c0             	test   %rax,%rax
    1735:	74 09                	je     1740 <deregister_tm_clones+0x30>
    1737:	5d                   	pop    %rbp
    1738:	ff e0                	jmpq   *%rax
    173a:	66 0f 1f 44 00 00    	nopw   0x0(%rax,%rax,1)
    1740:	5d                   	pop    %rbp
    1741:	c3                   	retq   
    1742:	0f 1f 40 00          	nopl   0x0(%rax)
    1746:	66 2e 0f 1f 84 00 00 	nopw   %cs:0x0(%rax,%rax,1)
    174d:	00 00 00 

0000000000001750 <register_tm_clones>:
    1750:	48 8d 3d e9 48 20 00 	lea    0x2048e9(%rip),%rdi        # 206040 <__TMC_END__>
    1757:	48 8d 35 e2 48 20 00 	lea    0x2048e2(%rip),%rsi        # 206040 <__TMC_END__>
    175e:	55                   	push   %rbp
    175f:	48 29 fe             	sub    %rdi,%rsi
    1762:	48 89 e5             	mov    %rsp,%rbp
    1765:	48 c1 fe 03          	sar    $0x3,%rsi
    1769:	48 89 f0             	mov    %rsi,%rax
    176c:	48 c1 e8 3f          	shr    $0x3f,%rax
    1770:	48 01 c6             	add    %rax,%rsi
    1773:	48 d1 fe             	sar    %rsi
    1776:	74 18                	je     1790 <register_tm_clones+0x40>
    1778:	48 8b 05 11 48 20 00 	mov    0x204811(%rip),%rax        # 205f90 <_GLOBAL_OFFSET_TABLE_+0x140>
    177f:	48 85 c0             	test   %rax,%rax
    1782:	74 0c                	je     1790 <register_tm_clones+0x40>
    1784:	5d                   	pop    %rbp
    1785:	ff e0                	jmpq   *%rax
    1787:	66 0f 1f 84 00 00 00 	nopw   0x0(%rax,%rax,1)
    178e:	00 00 
    1790:	5d                   	pop    %rbp
    1791:	c3                   	retq   
    1792:	0f 1f 40 00          	nopl   0x0(%rax)
    1796:	66 2e 0f 1f 84 00 00 	nopw   %cs:0x0(%rax,%rax,1)
    179d:	00 00 00 

00000000000017a0 <__do_global_dtors_aux>:
    17a0:	80 3d c1 48 20 00 00 	cmpb   $0x0,0x2048c1(%rip)        # 206068 <completed.7558>
    17a7:	75 27                	jne    17d0 <__do_global_dtors_aux+0x30>
    17a9:	48 83 3d ff 47 20 00 	cmpq   $0x0,0x2047ff(%rip)        # 205fb0 <_GLOBAL_OFFSET_TABLE_+0x160>
    17b0:	00 
    17b1:	55                   	push   %rbp
    17b2:	48 89 e5             	mov    %rsp,%rbp
    17b5:	74 0c                	je     17c3 <__do_global_dtors_aux+0x23>
    17b7:	48 8b 3d 4a 48 20 00 	mov    0x20484a(%rip),%rdi        # 206008 <__dso_handle>
    17be:	e8 dd fe ff ff       	callq  16a0 <_init+0x148>
    17c3:	e8 48 ff ff ff       	callq  1710 <deregister_tm_clones>
    17c8:	5d                   	pop    %rbp
    17c9:	c6 05 98 48 20 00 01 	movb   $0x1,0x204898(%rip)        # 206068 <completed.7558>
    17d0:	f3 c3                	repz retq 
    17d2:	0f 1f 40 00          	nopl   0x0(%rax)
    17d6:	66 2e 0f 1f 84 00 00 	nopw   %cs:0x0(%rax,%rax,1)
    17dd:	00 00 00 

00000000000017e0 <frame_dummy>:
    17e0:	48 8d 3d d1 42 20 00 	lea    0x2042d1(%rip),%rdi        # 205ab8 <__JCR_END__>
    17e7:	48 83 3f 00          	cmpq   $0x0,(%rdi)
    17eb:	75 0b                	jne    17f8 <frame_dummy+0x18>
    17ed:	e9 5e ff ff ff       	jmpq   1750 <register_tm_clones>
    17f2:	66 0f 1f 44 00 00    	nopw   0x0(%rax,%rax,1)
    17f8:	48 8b 05 51 47 20 00 	mov    0x204751(%rip),%rax        # 205f50 <_GLOBAL_OFFSET_TABLE_+0x100>
    17ff:	48 85 c0             	test   %rax,%rax
    1802:	74 e9                	je     17ed <frame_dummy+0xd>
    1804:	55                   	push   %rbp
    1805:	48 89 e5             	mov    %rsp,%rbp
    1808:	ff d0                	callq  *%rax
    180a:	5d                   	pop    %rbp
    180b:	e9 40 ff ff ff       	jmpq   1750 <register_tm_clones>

0000000000001810 <main>:
    1810:	55                   	push   %rbp
    1811:	53                   	push   %rbx
    1812:	48 83 ec 08          	sub    $0x8,%rsp
    1816:	89 fb                	mov    %edi,%ebx
    1818:	48 89 f5             	mov    %rsi,%rbp
    181b:	83 ff 01             	cmp    $0x1,%edi
    181e:	74 35                	je     1855 <main+0x45>
    1820:	83 ff 02             	cmp    $0x2,%edi
    1823:	0f 84 36 02 00 00    	je     1a5f <main+0x24f>
    1829:	48 8b 0e             	mov    (%rsi),%rcx
    182c:	48 8d 15 ae 26 00 00 	lea    0x26ae(%rip),%rdx        # 3ee1 <_IO_stdin_used+0x21>
    1833:	be 01 00 00 00       	mov    $0x1,%esi
    1838:	48 8b 3d 21 48 20 00 	mov    0x204821(%rip),%rdi        # 206060 <stderr@@GLIBC_2.2.5>
    183f:	b8 00 00 00 00       	mov    $0x0,%eax
    1844:	e8 37 fe ff ff       	callq  1680 <_init+0x128>
    1849:	b8 08 00 00 00       	mov    $0x8,%eax
    184e:	48 83 c4 08          	add    $0x8,%rsp
    1852:	5b                   	pop    %rbx
    1853:	5d                   	pop    %rbp
    1854:	c3                   	retq   
    1855:	48 8b 05 f4 47 20 00 	mov    0x2047f4(%rip),%rax        # 206050 <stdin@@GLIBC_2.2.5>
    185c:	48 89 05 65 49 20 00 	mov    %rax,0x204965(%rip)        # 2061c8 <infile>
    1863:	48 89 ee             	mov    %rbp,%rsi
    1866:	89 df                	mov    %ebx,%edi
    1868:	b8 00 00 00 00       	mov    $0x0,%eax
    186d:	e8 3d 11 00 00       	callq  29af <initialize_bomb>
    1872:	48 8d 3d a7 26 00 00 	lea    0x26a7(%rip),%rdi        # 3f20 <_IO_stdin_used+0x60>
    1879:	e8 12 fd ff ff       	callq  1590 <_init+0x38>
    187e:	ba 06 00 00 00       	mov    $0x6,%edx
    1883:	48 8d 35 d6 26 00 00 	lea    0x26d6(%rip),%rsi        # 3f60 <_IO_stdin_used+0xa0>
    188a:	bf 01 00 00 00       	mov    $0x1,%edi
    188f:	b8 00 00 00 00       	mov    $0x0,%eax
    1894:	e8 9f fd ff ff       	callq  1638 <_init+0xe0>
    1899:	48 8d 3d 59 26 00 00 	lea    0x2659(%rip),%rdi        # 3ef9 <_IO_stdin_used+0x39>
    18a0:	e8 eb fc ff ff       	callq  1590 <_init+0x38>
    18a5:	ba 01 00 00 00       	mov    $0x1,%edx
    18aa:	48 8d 35 66 26 00 00 	lea    0x2666(%rip),%rsi        # 3f17 <_IO_stdin_used+0x57>
    18b1:	bf 01 00 00 00       	mov    $0x1,%edi
    18b6:	b8 00 00 00 00       	mov    $0x0,%eax
    18bb:	e8 78 fd ff ff       	callq  1638 <_init+0xe0>
    18c0:	48 8b 3d 79 47 20 00 	mov    0x204779(%rip),%rdi        # 206040 <__TMC_END__>
    18c7:	e8 4c fd ff ff       	callq  1618 <_init+0xc0>
    18cc:	b8 00 00 00 00       	mov    $0x0,%eax
    18d1:	e8 44 0c 00 00       	callq  251a <read_line>
    18d6:	48 89 c7             	mov    %rax,%rdi
    18d9:	b8 00 00 00 00       	mov    $0x0,%eax
    18de:	e8 65 02 00 00       	callq  1b48 <phase1>
    18e3:	b8 00 00 00 00       	mov    $0x0,%eax
    18e8:	e8 8f 0f 00 00       	callq  287c <phase_defused>
    18ed:	ba 02 00 00 00       	mov    $0x2,%edx
    18f2:	48 8d 35 1e 26 00 00 	lea    0x261e(%rip),%rsi        # 3f17 <_IO_stdin_used+0x57>
    18f9:	bf 01 00 00 00       	mov    $0x1,%edi
    18fe:	b8 00 00 00 00       	mov    $0x0,%eax
    1903:	e8 30 fd ff ff       	callq  1638 <_init+0xe0>
    1908:	48 8b 3d 31 47 20 00 	mov    0x204731(%rip),%rdi        # 206040 <__TMC_END__>
    190f:	e8 04 fd ff ff       	callq  1618 <_init+0xc0>
    1914:	b8 00 00 00 00       	mov    $0x0,%eax
    1919:	e8 fc 0b 00 00       	callq  251a <read_line>
    191e:	48 89 c7             	mov    %rax,%rdi
    1921:	b8 00 00 00 00       	mov    $0x0,%eax
    1926:	e8 80 02 00 00       	callq  1bab <phase2>
    192b:	b8 00 00 00 00       	mov    $0x0,%eax
    1930:	e8 47 0f 00 00       	callq  287c <phase_defused>
    1935:	ba 03 00 00 00       	mov    $0x3,%edx
    193a:	48 8d 35 d6 25 00 00 	lea    0x25d6(%rip),%rsi        # 3f17 <_IO_stdin_used+0x57>
    1941:	bf 01 00 00 00       	mov    $0x1,%edi
    1946:	b8 00 00 00 00       	mov    $0x0,%eax
    194b:	e8 e8 fc ff ff       	callq  1638 <_init+0xe0>
    1950:	48 8b 3d e9 46 20 00 	mov    0x2046e9(%rip),%rdi        # 206040 <__TMC_END__>
    1957:	e8 bc fc ff ff       	callq  1618 <_init+0xc0>
    195c:	b8 00 00 00 00       	mov    $0x0,%eax
    1961:	e8 b4 0b 00 00       	callq  251a <read_line>
    1966:	48 89 c7             	mov    %rax,%rdi
    1969:	b8 00 00 00 00       	mov    $0x0,%eax
    196e:	e8 18 03 00 00       	callq  1c8b <phase3>
    1973:	b8 00 00 00 00       	mov    $0x0,%eax
    1978:	e8 ff 0e 00 00       	callq  287c <phase_defused>
    197d:	ba 04 00 00 00       	mov    $0x4,%edx
    1982:	48 8d 35 8e 25 00 00 	lea    0x258e(%rip),%rsi        # 3f17 <_IO_stdin_used+0x57>
    1989:	bf 01 00 00 00       	mov    $0x1,%edi
    198e:	b8 00 00 00 00       	mov    $0x0,%eax
    1993:	e8 a0 fc ff ff       	callq  1638 <_init+0xe0>
    1998:	48 8b 3d a1 46 20 00 	mov    0x2046a1(%rip),%rdi        # 206040 <__TMC_END__>
    199f:	e8 74 fc ff ff       	callq  1618 <_init+0xc0>
    19a4:	b8 00 00 00 00       	mov    $0x0,%eax
    19a9:	e8 6c 0b 00 00       	callq  251a <read_line>
    19ae:	48 89 c7             	mov    %rax,%rdi
    19b1:	b8 00 00 00 00       	mov    $0x0,%eax
    19b6:	e8 80 04 00 00       	callq  1e3b <phase4>
    19bb:	b8 00 00 00 00       	mov    $0x0,%eax
    19c0:	e8 b7 0e 00 00       	callq  287c <phase_defused>
    19c5:	ba 05 00 00 00       	mov    $0x5,%edx
    19ca:	48 8d 35 46 25 00 00 	lea    0x2546(%rip),%rsi        # 3f17 <_IO_stdin_used+0x57>
    19d1:	bf 01 00 00 00       	mov    $0x1,%edi
    19d6:	b8 00 00 00 00       	mov    $0x0,%eax
    19db:	e8 58 fc ff ff       	callq  1638 <_init+0xe0>
    19e0:	48 8b 3d 59 46 20 00 	mov    0x204659(%rip),%rdi        # 206040 <__TMC_END__>
    19e7:	e8 2c fc ff ff       	callq  1618 <_init+0xc0>
    19ec:	b8 00 00 00 00       	mov    $0x0,%eax
    19f1:	e8 24 0b 00 00       	callq  251a <read_line>
    19f6:	48 89 c7             	mov    %rax,%rdi
    19f9:	b8 00 00 00 00       	mov    $0x0,%eax
    19fe:	e8 5b 05 00 00       	callq  1f5e <phase5>
    1a03:	b8 00 00 00 00       	mov    $0x0,%eax
    1a08:	e8 6f 0e 00 00       	callq  287c <phase_defused>
    1a0d:	ba 06 00 00 00       	mov    $0x6,%edx
    1a12:	48 8d 35 fe 24 00 00 	lea    0x24fe(%rip),%rsi        # 3f17 <_IO_stdin_used+0x57>
    1a19:	bf 01 00 00 00       	mov    $0x1,%edi
    1a1e:	b8 00 00 00 00       	mov    $0x0,%eax
    1a23:	e8 10 fc ff ff       	callq  1638 <_init+0xe0>
    1a28:	48 8b 3d 11 46 20 00 	mov    0x204611(%rip),%rdi        # 206040 <__TMC_END__>
    1a2f:	e8 e4 fb ff ff       	callq  1618 <_init+0xc0>
    1a34:	b8 00 00 00 00       	mov    $0x0,%eax
    1a39:	e8 dc 0a 00 00       	callq  251a <read_line>
    1a3e:	48 89 c7             	mov    %rax,%rdi
    1a41:	b8 00 00 00 00       	mov    $0x0,%eax
    1a46:	e8 3d 06 00 00       	callq  2088 <phase6>
    1a4b:	b8 00 00 00 00       	mov    $0x0,%eax
    1a50:	e8 27 0e 00 00       	callq  287c <phase_defused>
    1a55:	b8 00 00 00 00       	mov    $0x0,%eax
    1a5a:	e9 ef fd ff ff       	jmpq   184e <main+0x3e>
    1a5f:	48 8b 7e 08          	mov    0x8(%rsi),%rdi
    1a63:	48 8d 35 3d 2c 00 00 	lea    0x2c3d(%rip),%rsi        # 46a7 <_IO_stdin_used+0x7e7>
    1a6a:	e8 d1 fb ff ff       	callq  1640 <_init+0xe8>
    1a6f:	48 89 05 52 47 20 00 	mov    %rax,0x204752(%rip)        # 2061c8 <infile>
    1a76:	48 85 c0             	test   %rax,%rax
    1a79:	0f 85 e4 fd ff ff    	jne    1863 <main+0x53>
    1a7f:	48 8b 4d 00          	mov    0x0(%rbp),%rcx
    1a83:	4c 8b 45 08          	mov    0x8(%rbp),%r8
    1a87:	48 8d 15 36 24 00 00 	lea    0x2436(%rip),%rdx        # 3ec4 <_IO_stdin_used+0x4>
    1a8e:	be 01 00 00 00       	mov    $0x1,%esi
    1a93:	48 8b 3d c6 45 20 00 	mov    0x2045c6(%rip),%rdi        # 206060 <stderr@@GLIBC_2.2.5>
    1a9a:	e8 e1 fb ff ff       	callq  1680 <_init+0x128>
    1a9f:	b8 08 00 00 00       	mov    $0x8,%eax
    1aa4:	e9 a5 fd ff ff       	jmpq   184e <main+0x3e>

0000000000001aa9 <string_length>:
    1aa9:	b8 00 00 00 00       	mov    $0x0,%eax
    1aae:	eb 07                	jmp    1ab7 <string_length+0xe>
    1ab0:	48 83 c7 01          	add    $0x1,%rdi
    1ab4:	83 c0 01             	add    $0x1,%eax
    1ab7:	80 3f 00             	cmpb   $0x0,(%rdi)
    1aba:	75 f4                	jne    1ab0 <string_length+0x7>
    1abc:	f3 c3                	repz retq 

0000000000001abe <strings_not_equal>:
    1abe:	41 54                	push   %r12
    1ac0:	55                   	push   %rbp
    1ac1:	53                   	push   %rbx
    1ac2:	48 89 fb             	mov    %rdi,%rbx
    1ac5:	48 89 f5             	mov    %rsi,%rbp
    1ac8:	e8 dc ff ff ff       	callq  1aa9 <string_length>
    1acd:	41 89 c4             	mov    %eax,%r12d
    1ad0:	48 89 ef             	mov    %rbp,%rdi
    1ad3:	e8 d1 ff ff ff       	callq  1aa9 <string_length>
    1ad8:	41 39 c4             	cmp    %eax,%r12d
    1adb:	74 0a                	je     1ae7 <strings_not_equal+0x29>
    1add:	b8 01 00 00 00       	mov    $0x1,%eax
    1ae2:	5b                   	pop    %rbx
    1ae3:	5d                   	pop    %rbp
    1ae4:	41 5c                	pop    %r12
    1ae6:	c3                   	retq   
    1ae7:	0f b6 03             	movzbl (%rbx),%eax
    1aea:	84 c0                	test   %al,%al
    1aec:	74 0f                	je     1afd <strings_not_equal+0x3f>
    1aee:	3a 45 00             	cmp    0x0(%rbp),%al
    1af1:	75 11                	jne    1b04 <strings_not_equal+0x46>
    1af3:	48 83 c3 01          	add    $0x1,%rbx
    1af7:	48 83 c5 01          	add    $0x1,%rbp
    1afb:	eb ea                	jmp    1ae7 <strings_not_equal+0x29>
    1afd:	b8 00 00 00 00       	mov    $0x0,%eax
    1b02:	eb de                	jmp    1ae2 <strings_not_equal+0x24>
    1b04:	b8 01 00 00 00       	mov    $0x1,%eax
    1b09:	eb d7                	jmp    1ae2 <strings_not_equal+0x24>

0000000000001b0b <initialize_phase1>:
    1b0b:	48 83 ec 08          	sub    $0x8,%rsp
    1b0f:	0f be 0d ca 4b 20 00 	movsbl 0x204bca(%rip),%ecx        # 2066e0 <secret>
    1b16:	ba 89 88 88 88       	mov    $0x88888889,%edx
    1b1b:	89 c8                	mov    %ecx,%eax
    1b1d:	f7 e2                	mul    %edx
    1b1f:	c1 ea 04             	shr    $0x4,%edx
    1b22:	6b d2 1e             	imul   $0x1e,%edx,%edx
    1b25:	29 d1                	sub    %edx,%ecx
    1b27:	48 8d 05 92 3f 20 00 	lea    0x203f92(%rip),%rax        # 205ac0 <quotes>
    1b2e:	48 8b 34 c8          	mov    (%rax,%rcx,8),%rsi
    1b32:	ba 00 01 00 00       	mov    $0x100,%edx
    1b37:	48 8d 3d 42 45 20 00 	lea    0x204542(%rip),%rdi        # 206080 <quote>
    1b3e:	e8 ed fa ff ff       	callq  1630 <_init+0xd8>
    1b43:	48 83 c4 08          	add    $0x8,%rsp
    1b47:	c3                   	retq   

0000000000001b48 <phase1>:
    1b48:	48 83 ec 08          	sub    $0x8,%rsp
    1b4c:	48 8d 35 2d 45 20 00 	lea    0x20452d(%rip),%rsi        # 206080 <quote>
    1b53:	e8 66 ff ff ff       	callq  1abe <strings_not_equal>
    1b58:	85 c0                	test   %eax,%eax
    1b5a:	75 05                	jne    1b61 <phase1+0x19>
    1b5c:	48 83 c4 08          	add    $0x8,%rsp
    1b60:	c3                   	retq   
    1b61:	b8 00 00 00 00       	mov    $0x0,%eax
    1b66:	e8 95 0b 00 00       	callq  2700 <explode_bomb>
    1b6b:	eb ef                	jmp    1b5c <phase1+0x14>

0000000000001b6d <initialize_phase2>:
    1b6d:	0f be 0d 94 4b 20 00 	movsbl 0x204b94(%rip),%ecx        # 206708 <secret+0x28>
    1b74:	ba ab aa aa aa       	mov    $0xaaaaaaab,%edx
    1b79:	89 c8                	mov    %ecx,%eax
    1b7b:	f7 e2                	mul    %edx
    1b7d:	c1 ea 03             	shr    $0x3,%edx
    1b80:	8d 14 52             	lea    (%rdx,%rdx,2),%edx
    1b83:	8d 04 95 00 00 00 00 	lea    0x0(,%rdx,4),%eax
    1b8a:	29 c1                	sub    %eax,%ecx
    1b8c:	89 ca                	mov    %ecx,%edx
    1b8e:	83 c2 01             	add    $0x1,%edx
    1b91:	89 15 e9 45 20 00    	mov    %edx,0x2045e9(%rip)        # 206180 <phase2_data>
    1b97:	0f b6 05 6b 4b 20 00 	movzbl 0x204b6b(%rip),%eax        # 206709 <secret+0x29>
    1b9e:	83 e0 03             	and    $0x3,%eax
    1ba1:	83 c0 02             	add    $0x2,%eax
    1ba4:	89 05 da 45 20 00    	mov    %eax,0x2045da(%rip)        # 206184 <phase2_data+0x4>
    1baa:	c3                   	retq   

0000000000001bab <phase2>:
    1bab:	53                   	push   %rbx
    1bac:	48 83 ec 20          	sub    $0x20,%rsp
    1bb0:	64 48 8b 04 25 28 00 	mov    %fs:0x28,%rax
    1bb7:	00 00 
    1bb9:	48 89 44 24 18       	mov    %rax,0x18(%rsp)
    1bbe:	31 c0                	xor    %eax,%eax
    1bc0:	48 89 e6             	mov    %rsp,%rsi
    1bc3:	e8 71 07 00 00       	callq  2339 <read_six_numbers>
    1bc8:	8b 05 b2 45 20 00    	mov    0x2045b2(%rip),%eax        # 206180 <phase2_data>
    1bce:	39 04 24             	cmp    %eax,(%rsp)
    1bd1:	74 0a                	je     1bdd <phase2+0x32>
    1bd3:	b8 00 00 00 00       	mov    $0x0,%eax
    1bd8:	e8 23 0b 00 00       	callq  2700 <explode_bomb>
    1bdd:	bb 01 00 00 00       	mov    $0x1,%ebx
    1be2:	eb 0d                	jmp    1bf1 <phase2+0x46>
    1be4:	b8 00 00 00 00       	mov    $0x0,%eax
    1be9:	e8 12 0b 00 00       	callq  2700 <explode_bomb>
    1bee:	83 c3 01             	add    $0x1,%ebx
    1bf1:	83 fb 05             	cmp    $0x5,%ebx
    1bf4:	7f 26                	jg     1c1c <phase2+0x71>
    1bf6:	48 63 c3             	movslq %ebx,%rax
    1bf9:	8b 0c 84             	mov    (%rsp,%rax,4),%ecx
    1bfc:	8d 43 ff             	lea    -0x1(%rbx),%eax
    1bff:	48 98                	cltq   
    1c01:	8b 34 84             	mov    (%rsp,%rax,4),%esi
    1c04:	89 c8                	mov    %ecx,%eax
    1c06:	99                   	cltd   
    1c07:	f7 fe                	idiv   %esi
    1c09:	3b 05 75 45 20 00    	cmp    0x204575(%rip),%eax        # 206184 <phase2_data+0x4>
    1c0f:	75 d3                	jne    1be4 <phase2+0x39>
    1c11:	89 c8                	mov    %ecx,%eax
    1c13:	99                   	cltd   
    1c14:	f7 fe                	idiv   %esi
    1c16:	85 d2                	test   %edx,%edx
    1c18:	7f ca                	jg     1be4 <phase2+0x39>
    1c1a:	eb d2                	jmp    1bee <phase2+0x43>
    1c1c:	48 8b 44 24 18       	mov    0x18(%rsp),%rax
    1c21:	64 48 33 04 25 28 00 	xor    %fs:0x28,%rax
    1c28:	00 00 
    1c2a:	75 06                	jne    1c32 <phase2+0x87>
    1c2c:	48 83 c4 20          	add    $0x20,%rsp
    1c30:	5b                   	pop    %rbx
    1c31:	c3                   	retq   
    1c32:	e8 81 f9 ff ff       	callq  15b8 <_init+0x60>

0000000000001c37 <initialize_phase3>:
    1c37:	f3 c3                	repz retq 

0000000000001c39 <getnumber>:
    1c39:	ba 89 88 88 88       	mov    $0x88888889,%edx
    1c3e:	89 f8                	mov    %edi,%eax
    1c40:	f7 ea                	imul   %edx
    1c42:	01 fa                	add    %edi,%edx
    1c44:	c1 fa 03             	sar    $0x3,%edx
    1c47:	89 f8                	mov    %edi,%eax
    1c49:	c1 f8 1f             	sar    $0x1f,%eax
    1c4c:	29 c2                	sub    %eax,%edx
    1c4e:	89 d0                	mov    %edx,%eax
    1c50:	c1 e0 04             	shl    $0x4,%eax
    1c53:	29 d0                	sub    %edx,%eax
    1c55:	89 fa                	mov    %edi,%edx
    1c57:	29 c2                	sub    %eax,%edx
    1c59:	8d 42 50             	lea    0x50(%rdx),%eax
    1c5c:	48 98                	cltq   
    1c5e:	48 8d 0d 7b 4a 20 00 	lea    0x204a7b(%rip),%rcx        # 2066e0 <secret>
    1c65:	0f be 04 01          	movsbl (%rcx,%rax,1),%eax
    1c69:	eb 19                	jmp    1c84 <getnumber+0x4b>
    1c6b:	31 f8                	xor    %edi,%eax
    1c6d:	8d 4a 50             	lea    0x50(%rdx),%ecx
    1c70:	48 63 c9             	movslq %ecx,%rcx
    1c73:	48 8d 35 66 4a 20 00 	lea    0x204a66(%rip),%rsi        # 2066e0 <secret>
    1c7a:	0f b6 0c 0e          	movzbl (%rsi,%rcx,1),%ecx
    1c7e:	0f af c1             	imul   %ecx,%eax
    1c81:	83 c2 01             	add    $0x1,%edx
    1c84:	83 fa 0f             	cmp    $0xf,%edx
    1c87:	7e e2                	jle    1c6b <getnumber+0x32>
    1c89:	f3 c3                	repz retq 

0000000000001c8b <phase3>:
    1c8b:	53                   	push   %rbx
    1c8c:	48 83 ec 10          	sub    $0x10,%rsp
    1c90:	64 48 8b 04 25 28 00 	mov    %fs:0x28,%rax
    1c97:	00 00 
    1c99:	48 89 44 24 08       	mov    %rax,0x8(%rsp)
    1c9e:	31 c0                	xor    %eax,%eax
    1ca0:	c6 44 24 03 41       	movb   $0x41,0x3(%rsp)
    1ca5:	c7 44 24 04 00 00 00 	movl   $0x0,0x4(%rsp)
    1cac:	00 
    1cad:	48 8d 4c 24 04       	lea    0x4(%rsp),%rcx
    1cb2:	48 8d 54 24 03       	lea    0x3(%rsp),%rdx
    1cb7:	48 8d 35 5e 29 00 00 	lea    0x295e(%rip),%rsi        # 461c <_IO_stdin_used+0x75c>
    1cbe:	e8 5d f9 ff ff       	callq  1620 <_init+0xc8>
    1cc3:	89 c6                	mov    %eax,%esi
    1cc5:	0f be 4c 24 03       	movsbl 0x3(%rsp),%ecx
    1cca:	83 e9 41             	sub    $0x41,%ecx
    1ccd:	ba 39 8e e3 38       	mov    $0x38e38e39,%edx
    1cd2:	89 c8                	mov    %ecx,%eax
    1cd4:	f7 ea                	imul   %edx
    1cd6:	d1 fa                	sar    %edx
    1cd8:	89 c8                	mov    %ecx,%eax
    1cda:	c1 f8 1f             	sar    $0x1f,%eax
    1cdd:	89 d3                	mov    %edx,%ebx
    1cdf:	29 c3                	sub    %eax,%ebx
    1ce1:	8d 04 db             	lea    (%rbx,%rbx,8),%eax
    1ce4:	29 c1                	sub    %eax,%ecx
    1ce6:	89 cb                	mov    %ecx,%ebx
    1ce8:	83 fe 01             	cmp    $0x1,%esi
    1ceb:	76 1b                	jbe    1d08 <phase3+0x7d>
    1ced:	83 fb 08             	cmp    $0x8,%ebx
    1cf0:	0f 87 b4 00 00 00    	ja     1daa <phase3+0x11f>
    1cf6:	89 db                	mov    %ebx,%ebx
    1cf8:	48 8d 15 25 29 00 00 	lea    0x2925(%rip),%rdx        # 4624 <_IO_stdin_used+0x764>
    1cff:	48 63 04 9a          	movslq (%rdx,%rbx,4),%rax
    1d03:	48 01 d0             	add    %rdx,%rax
    1d06:	ff e0                	jmpq   *%rax
    1d08:	b8 00 00 00 00       	mov    $0x0,%eax
    1d0d:	e8 ee 09 00 00       	callq  2700 <explode_bomb>
    1d12:	eb d9                	jmp    1ced <phase3+0x62>
    1d14:	bf 06 00 00 00       	mov    $0x6,%edi
    1d19:	e8 1b ff ff ff       	callq  1c39 <getnumber>
    1d1e:	33 44 24 04          	xor    0x4(%rsp),%eax
    1d22:	a9 ff 0f 00 00       	test   $0xfff,%eax
    1d27:	0f 85 91 00 00 00    	jne    1dbe <phase3+0x133>
    1d2d:	48 8b 44 24 08       	mov    0x8(%rsp),%rax
    1d32:	64 48 33 04 25 28 00 	xor    %fs:0x28,%rax
    1d39:	00 00 
    1d3b:	0f 85 8c 00 00 00    	jne    1dcd <phase3+0x142>
    1d41:	48 83 c4 10          	add    $0x10,%rsp
    1d45:	5b                   	pop    %rbx
    1d46:	c3                   	retq   
    1d47:	bf 0e 00 00 00       	mov    $0xe,%edi
    1d4c:	e8 e8 fe ff ff       	callq  1c39 <getnumber>
    1d51:	eb cb                	jmp    1d1e <phase3+0x93>
    1d53:	bf 01 00 00 00       	mov    $0x1,%edi
    1d58:	e8 dc fe ff ff       	callq  1c39 <getnumber>
    1d5d:	eb bf                	jmp    1d1e <phase3+0x93>
    1d5f:	bf 0b 00 00 00       	mov    $0xb,%edi
    1d64:	e8 d0 fe ff ff       	callq  1c39 <getnumber>
    1d69:	eb b3                	jmp    1d1e <phase3+0x93>
    1d6b:	bf 04 00 00 00       	mov    $0x4,%edi
    1d70:	e8 c4 fe ff ff       	callq  1c39 <getnumber>
    1d75:	eb a7                	jmp    1d1e <phase3+0x93>
    1d77:	bf 09 00 00 00       	mov    $0x9,%edi
    1d7c:	e8 b8 fe ff ff       	callq  1c39 <getnumber>
    1d81:	eb 9b                	jmp    1d1e <phase3+0x93>
    1d83:	bf 03 00 00 00       	mov    $0x3,%edi
    1d88:	e8 ac fe ff ff       	callq  1c39 <getnumber>
    1d8d:	eb 8f                	jmp    1d1e <phase3+0x93>
    1d8f:	bf 02 00 00 00       	mov    $0x2,%edi
    1d94:	e8 a0 fe ff ff       	callq  1c39 <getnumber>
    1d99:	eb 83                	jmp    1d1e <phase3+0x93>
    1d9b:	bf 07 00 00 00       	mov    $0x7,%edi
    1da0:	e8 94 fe ff ff       	callq  1c39 <getnumber>
    1da5:	e9 74 ff ff ff       	jmpq   1d1e <phase3+0x93>
    1daa:	b8 00 00 00 00       	mov    $0x0,%eax
    1daf:	e8 4c 09 00 00       	callq  2700 <explode_bomb>
    1db4:	b8 00 00 00 00       	mov    $0x0,%eax
    1db9:	e9 60 ff ff ff       	jmpq   1d1e <phase3+0x93>
    1dbe:	b8 00 00 00 00       	mov    $0x0,%eax
    1dc3:	e8 38 09 00 00       	callq  2700 <explode_bomb>
    1dc8:	e9 60 ff ff ff       	jmpq   1d2d <phase3+0xa2>
    1dcd:	e8 e6 f7 ff ff       	callq  15b8 <_init+0x60>

0000000000001dd2 <F>:
    1dd2:	85 ff                	test   %edi,%edi
    1dd4:	74 2d                	je     1e03 <F+0x31>
    1dd6:	83 ff 01             	cmp    $0x1,%edi
    1dd9:	74 2b                	je     1e06 <F+0x34>
    1ddb:	41 54                	push   %r12
    1ddd:	55                   	push   %rbp
    1dde:	53                   	push   %rbx
    1ddf:	89 f5                	mov    %esi,%ebp
    1de1:	89 fb                	mov    %edi,%ebx
    1de3:	8d 7f ff             	lea    -0x1(%rdi),%edi
    1de6:	e8 e7 ff ff ff       	callq  1dd2 <F>
    1deb:	44 8d 64 05 00       	lea    0x0(%rbp,%rax,1),%r12d
    1df0:	8d 75 ff             	lea    -0x1(%rbp),%esi
    1df3:	8d 7b fe             	lea    -0x2(%rbx),%edi
    1df6:	e8 d7 ff ff ff       	callq  1dd2 <F>
    1dfb:	44 01 e0             	add    %r12d,%eax
    1dfe:	5b                   	pop    %rbx
    1dff:	5d                   	pop    %rbp
    1e00:	41 5c                	pop    %r12
    1e02:	c3                   	retq   
    1e03:	89 f8                	mov    %edi,%eax
    1e05:	c3                   	retq   
    1e06:	89 f0                	mov    %esi,%eax
    1e08:	c3                   	retq   

0000000000001e09 <initialize_phase4>:
    1e09:	0f be 0d 48 49 20 00 	movsbl 0x204948(%rip),%ecx        # 206758 <secret+0x78>
    1e10:	ba 25 49 92 24       	mov    $0x24924925,%edx
    1e15:	89 c8                	mov    %ecx,%eax
    1e17:	f7 e2                	mul    %edx
    1e19:	89 c8                	mov    %ecx,%eax
    1e1b:	29 d0                	sub    %edx,%eax
    1e1d:	d1 e8                	shr    %eax
    1e1f:	01 c2                	add    %eax,%edx
    1e21:	c1 ea 02             	shr    $0x2,%edx
    1e24:	8d 04 d5 00 00 00 00 	lea    0x0(,%rdx,8),%eax
    1e2b:	29 d0                	sub    %edx,%eax
    1e2d:	29 c1                	sub    %eax,%ecx
    1e2f:	89 ca                	mov    %ecx,%edx
    1e31:	83 c2 05             	add    $0x5,%edx
    1e34:	89 15 4e 43 20 00    	mov    %edx,0x20434e(%rip)        # 206188 <phase4_data>
    1e3a:	c3                   	retq   

0000000000001e3b <phase4>:
    1e3b:	48 83 ec 18          	sub    $0x18,%rsp
    1e3f:	64 48 8b 04 25 28 00 	mov    %fs:0x28,%rax
    1e46:	00 00 
    1e48:	48 89 44 24 08       	mov    %rax,0x8(%rsp)
    1e4d:	31 c0                	xor    %eax,%eax
    1e4f:	48 8d 4c 24 04       	lea    0x4(%rsp),%rcx
    1e54:	48 89 e2             	mov    %rsp,%rdx
    1e57:	48 8d 35 ea 27 00 00 	lea    0x27ea(%rip),%rsi        # 4648 <_IO_stdin_used+0x788>
    1e5e:	e8 bd f7 ff ff       	callq  1620 <_init+0xc8>
    1e63:	83 f8 01             	cmp    $0x1,%eax
    1e66:	7e 33                	jle    1e9b <phase4+0x60>
    1e68:	8b 34 24             	mov    (%rsp),%esi
    1e6b:	8b 3d 17 43 20 00    	mov    0x204317(%rip),%edi        # 206188 <phase4_data>
    1e71:	e8 5c ff ff ff       	callq  1dd2 <F>
    1e76:	3b 44 24 04          	cmp    0x4(%rsp),%eax
    1e7a:	74 0a                	je     1e86 <phase4+0x4b>
    1e7c:	b8 00 00 00 00       	mov    $0x0,%eax
    1e81:	e8 7a 08 00 00       	callq  2700 <explode_bomb>
    1e86:	48 8b 44 24 08       	mov    0x8(%rsp),%rax
    1e8b:	64 48 33 04 25 28 00 	xor    %fs:0x28,%rax
    1e92:	00 00 
    1e94:	75 11                	jne    1ea7 <phase4+0x6c>
    1e96:	48 83 c4 18          	add    $0x18,%rsp
    1e9a:	c3                   	retq   
    1e9b:	b8 00 00 00 00       	mov    $0x0,%eax
    1ea0:	e8 5b 08 00 00       	callq  2700 <explode_bomb>
    1ea5:	eb c1                	jmp    1e68 <phase4+0x2d>
    1ea7:	e8 0c f7 ff ff       	callq  15b8 <_init+0x60>

0000000000001eac <initialize_phase5>:
    1eac:	48 83 ec 08          	sub    $0x8,%rsp
    1eb0:	b8 00 00 00 00       	mov    $0x0,%eax
    1eb5:	eb 15                	jmp    1ecc <initialize_phase5+0x20>
    1eb7:	8d 70 61             	lea    0x61(%rax),%esi
    1eba:	48 63 d0             	movslq %eax,%rdx
    1ebd:	48 8d 0d dc 42 20 00 	lea    0x2042dc(%rip),%rcx        # 2061a0 <phase5_data>
    1ec4:	40 88 74 11 08       	mov    %sil,0x8(%rcx,%rdx,1)
    1ec9:	83 c0 01             	add    $0x1,%eax
    1ecc:	83 f8 19             	cmp    $0x19,%eax
    1ecf:	7e e6                	jle    1eb7 <initialize_phase5+0xb>
    1ed1:	b9 00 00 00 00       	mov    $0x0,%ecx
    1ed6:	eb 48                	jmp    1f20 <initialize_phase5+0x74>
    1ed8:	8d 81 a0 00 00 00    	lea    0xa0(%rcx),%eax
    1ede:	48 98                	cltq   
    1ee0:	48 8d 15 f9 47 20 00 	lea    0x2047f9(%rip),%rdx        # 2066e0 <secret>
    1ee7:	0f be 04 02          	movsbl (%rdx,%rax,1),%eax
    1eeb:	be 1a 00 00 00       	mov    $0x1a,%esi
    1ef0:	29 ce                	sub    %ecx,%esi
    1ef2:	ba 00 00 00 00       	mov    $0x0,%edx
    1ef7:	f7 f6                	div    %esi
    1ef9:	01 ca                	add    %ecx,%edx
    1efb:	48 8d 05 9e 42 20 00 	lea    0x20429e(%rip),%rax        # 2061a0 <phase5_data>
    1f02:	48 63 f1             	movslq %ecx,%rsi
    1f05:	0f b6 7c 30 08       	movzbl 0x8(%rax,%rsi,1),%edi
    1f0a:	48 63 d2             	movslq %edx,%rdx
    1f0d:	44 0f b6 44 10 08    	movzbl 0x8(%rax,%rdx,1),%r8d
    1f13:	44 88 44 30 08       	mov    %r8b,0x8(%rax,%rsi,1)
    1f18:	40 88 7c 10 08       	mov    %dil,0x8(%rax,%rdx,1)
    1f1d:	83 c1 01             	add    $0x1,%ecx
    1f20:	83 f9 17             	cmp    $0x17,%ecx
    1f23:	7e b3                	jle    1ed8 <initialize_phase5+0x2c>
    1f25:	0f be 0d 72 48 20 00 	movsbl 0x204872(%rip),%ecx        # 20679e <secret+0xbe>
    1f2c:	ba 4f ec c4 4e       	mov    $0x4ec4ec4f,%edx
    1f31:	89 c8                	mov    %ecx,%eax
    1f33:	f7 e2                	mul    %edx
    1f35:	c1 ea 03             	shr    $0x3,%edx
    1f38:	6b d2 1a             	imul   $0x1a,%edx,%edx
    1f3b:	29 d1                	sub    %edx,%ecx
    1f3d:	48 8d 05 7c 3c 20 00 	lea    0x203c7c(%rip),%rax        # 205bc0 <shortwords>
    1f44:	48 8b 34 c8          	mov    (%rax,%rcx,8),%rsi
    1f48:	ba 08 00 00 00       	mov    $0x8,%edx
    1f4d:	48 8d 3d 4c 42 20 00 	lea    0x20424c(%rip),%rdi        # 2061a0 <phase5_data>
    1f54:	e8 d7 f6 ff ff       	callq  1630 <_init+0xd8>
    1f59:	48 83 c4 08          	add    $0x8,%rsp
    1f5d:	c3                   	retq   

0000000000001f5e <phase5>:
    1f5e:	41 54                	push   %r12
    1f60:	55                   	push   %rbp
    1f61:	53                   	push   %rbx
    1f62:	48 83 ec 10          	sub    $0x10,%rsp
    1f66:	49 89 fc             	mov    %rdi,%r12
    1f69:	64 48 8b 04 25 28 00 	mov    %fs:0x28,%rax
    1f70:	00 00 
    1f72:	48 89 44 24 08       	mov    %rax,0x8(%rsp)
    1f77:	31 c0                	xor    %eax,%eax
    1f79:	c6 44 24 06 00       	movb   $0x0,0x6(%rsp)
    1f7e:	e8 26 fb ff ff       	callq  1aa9 <string_length>
    1f83:	83 f8 06             	cmp    $0x6,%eax
    1f86:	74 0a                	je     1f92 <phase5+0x34>
    1f88:	b8 00 00 00 00       	mov    $0x0,%eax
    1f8d:	e8 6e 07 00 00       	callq  2700 <explode_bomb>
    1f92:	bb 00 00 00 00       	mov    $0x0,%ebx
    1f97:	eb 1e                	jmp    1fb7 <phase5+0x59>
    1f99:	0f be 45 00          	movsbl 0x0(%rbp),%eax
    1f9d:	83 e8 61             	sub    $0x61,%eax
    1fa0:	48 98                	cltq   
    1fa2:	48 8d 15 f7 41 20 00 	lea    0x2041f7(%rip),%rdx        # 2061a0 <phase5_data>
    1fa9:	0f b6 54 02 08       	movzbl 0x8(%rdx,%rax,1),%edx
    1fae:	48 63 c3             	movslq %ebx,%rax
    1fb1:	88 14 04             	mov    %dl,(%rsp,%rax,1)
    1fb4:	83 c3 01             	add    $0x1,%ebx
    1fb7:	83 fb 05             	cmp    $0x5,%ebx
    1fba:	7f 1d                	jg     1fd9 <phase5+0x7b>
    1fbc:	48 63 eb             	movslq %ebx,%rbp
    1fbf:	4c 01 e5             	add    %r12,%rbp
    1fc2:	0f b6 45 00          	movzbl 0x0(%rbp),%eax
    1fc6:	83 e8 61             	sub    $0x61,%eax
    1fc9:	3c 19                	cmp    $0x19,%al
    1fcb:	76 cc                	jbe    1f99 <phase5+0x3b>
    1fcd:	b8 00 00 00 00       	mov    $0x0,%eax
    1fd2:	e8 29 07 00 00       	callq  2700 <explode_bomb>
    1fd7:	eb c0                	jmp    1f99 <phase5+0x3b>
    1fd9:	48 89 e7             	mov    %rsp,%rdi
    1fdc:	48 8d 35 bd 41 20 00 	lea    0x2041bd(%rip),%rsi        # 2061a0 <phase5_data>
    1fe3:	e8 d6 fa ff ff       	callq  1abe <strings_not_equal>
    1fe8:	85 c0                	test   %eax,%eax
    1fea:	75 19                	jne    2005 <phase5+0xa7>
    1fec:	48 8b 44 24 08       	mov    0x8(%rsp),%rax
    1ff1:	64 48 33 04 25 28 00 	xor    %fs:0x28,%rax
    1ff8:	00 00 
    1ffa:	75 15                	jne    2011 <phase5+0xb3>
    1ffc:	48 83 c4 10          	add    $0x10,%rsp
    2000:	5b                   	pop    %rbx
    2001:	5d                   	pop    %rbp
    2002:	41 5c                	pop    %r12
    2004:	c3                   	retq   
    2005:	b8 00 00 00 00       	mov    $0x0,%eax
    200a:	e8 f1 06 00 00       	callq  2700 <explode_bomb>
    200f:	eb db                	jmp    1fec <phase5+0x8e>
    2011:	e8 a2 f5 ff ff       	callq  15b8 <_init+0x60>

0000000000002016 <initialize_phase6>:
    2016:	b8 00 00 00 00       	mov    $0x0,%eax
    201b:	eb 19                	jmp    2036 <initialize_phase6+0x20>
    201d:	ba 00 00 00 00       	mov    $0x0,%edx
    2022:	48 98                	cltq   
    2024:	48 c1 e0 04          	shl    $0x4,%rax
    2028:	48 8d 35 b1 41 20 00 	lea    0x2041b1(%rip),%rsi        # 2061e0 <phase6_data>
    202f:	48 89 54 06 08       	mov    %rdx,0x8(%rsi,%rax,1)
    2034:	89 c8                	mov    %ecx,%eax
    2036:	83 f8 05             	cmp    $0x5,%eax
    2039:	7f 4b                	jg     2086 <initialize_phase6+0x70>
    203b:	8d 90 c8 00 00 00    	lea    0xc8(%rax),%edx
    2041:	48 63 d2             	movslq %edx,%rdx
    2044:	48 8d 0d 95 46 20 00 	lea    0x204695(%rip),%rcx        # 2066e0 <secret>
    204b:	0f be 0c 11          	movsbl (%rcx,%rdx,1),%ecx
    204f:	0f b7 c9             	movzwl %cx,%ecx
    2052:	48 63 d0             	movslq %eax,%rdx
    2055:	48 89 d6             	mov    %rdx,%rsi
    2058:	48 c1 e6 04          	shl    $0x4,%rsi
    205c:	48 8d 15 7d 41 20 00 	lea    0x20417d(%rip),%rdx        # 2061e0 <phase6_data>
    2063:	48 01 f2             	add    %rsi,%rdx
    2066:	89 0a                	mov    %ecx,(%rdx)
    2068:	8d 48 01             	lea    0x1(%rax),%ecx
    206b:	89 4a 04             	mov    %ecx,0x4(%rdx)
    206e:	83 f8 04             	cmp    $0x4,%eax
    2071:	7f aa                	jg     201d <initialize_phase6+0x7>
    2073:	48 63 d1             	movslq %ecx,%rdx
    2076:	48 c1 e2 04          	shl    $0x4,%rdx
    207a:	48 8d 35 5f 41 20 00 	lea    0x20415f(%rip),%rsi        # 2061e0 <phase6_data>
    2081:	48 01 f2             	add    %rsi,%rdx
    2084:	eb 9c                	jmp    2022 <initialize_phase6+0xc>
    2086:	f3 c3                	repz retq 

0000000000002088 <phase6>:
    2088:	41 54                	push   %r12
    208a:	55                   	push   %rbp
    208b:	53                   	push   %rbx
    208c:	48 83 ec 60          	sub    $0x60,%rsp
    2090:	64 48 8b 04 25 28 00 	mov    %fs:0x28,%rax
    2097:	00 00 
    2099:	48 89 44 24 58       	mov    %rax,0x58(%rsp)
    209e:	31 c0                	xor    %eax,%eax
    20a0:	48 89 e6             	mov    %rsp,%rsi
    20a3:	e8 91 02 00 00       	callq  2339 <read_six_numbers>
    20a8:	bd 00 00 00 00       	mov    $0x0,%ebp
    20ad:	eb 31                	jmp    20e0 <phase6+0x58>
    20af:	b8 00 00 00 00       	mov    $0x0,%eax
    20b4:	e8 47 06 00 00       	callq  2700 <explode_bomb>
    20b9:	eb 38                	jmp    20f3 <phase6+0x6b>
    20bb:	83 c3 01             	add    $0x1,%ebx
    20be:	83 fb 05             	cmp    $0x5,%ebx
    20c1:	7f 1a                	jg     20dd <phase6+0x55>
    20c3:	48 63 c5             	movslq %ebp,%rax
    20c6:	48 63 d3             	movslq %ebx,%rdx
    20c9:	8b 34 94             	mov    (%rsp,%rdx,4),%esi
    20cc:	39 34 84             	cmp    %esi,(%rsp,%rax,4)
    20cf:	75 ea                	jne    20bb <phase6+0x33>
    20d1:	b8 00 00 00 00       	mov    $0x0,%eax
    20d6:	e8 25 06 00 00       	callq  2700 <explode_bomb>
    20db:	eb de                	jmp    20bb <phase6+0x33>
    20dd:	44 89 e5             	mov    %r12d,%ebp
    20e0:	83 fd 05             	cmp    $0x5,%ebp
    20e3:	7f 17                	jg     20fc <phase6+0x74>
    20e5:	48 63 c5             	movslq %ebp,%rax
    20e8:	8b 04 84             	mov    (%rsp,%rax,4),%eax
    20eb:	83 e8 01             	sub    $0x1,%eax
    20ee:	83 f8 05             	cmp    $0x5,%eax
    20f1:	77 bc                	ja     20af <phase6+0x27>
    20f3:	44 8d 65 01          	lea    0x1(%rbp),%r12d
    20f7:	44 89 e3             	mov    %r12d,%ebx
    20fa:	eb c2                	jmp    20be <phase6+0x36>
    20fc:	bf 00 00 00 00       	mov    $0x0,%edi
    2101:	eb 1e                	jmp    2121 <phase6+0x99>
    2103:	48 8b 76 08          	mov    0x8(%rsi),%rsi
    2107:	83 c1 01             	add    $0x1,%ecx
    210a:	48 63 d7             	movslq %edi,%rdx
    210d:	b8 07 00 00 00       	mov    $0x7,%eax
    2112:	2b 04 94             	sub    (%rsp,%rdx,4),%eax
    2115:	39 c1                	cmp    %eax,%ecx
    2117:	7c ea                	jl     2103 <phase6+0x7b>
    2119:	48 89 74 d4 20       	mov    %rsi,0x20(%rsp,%rdx,8)
    211e:	83 c7 01             	add    $0x1,%edi
    2121:	83 ff 05             	cmp    $0x5,%edi
    2124:	7f 0e                	jg     2134 <phase6+0xac>
    2126:	b9 01 00 00 00       	mov    $0x1,%ecx
    212b:	48 8d 35 ae 40 20 00 	lea    0x2040ae(%rip),%rsi        # 2061e0 <phase6_data>
    2132:	eb d6                	jmp    210a <phase6+0x82>
    2134:	48 8b 5c 24 20       	mov    0x20(%rsp),%rbx
    2139:	48 89 d9             	mov    %rbx,%rcx
    213c:	b8 01 00 00 00       	mov    $0x1,%eax
    2141:	eb 12                	jmp    2155 <phase6+0xcd>
    2143:	48 63 d0             	movslq %eax,%rdx
    2146:	48 8b 54 d4 20       	mov    0x20(%rsp,%rdx,8),%rdx
    214b:	48 89 51 08          	mov    %rdx,0x8(%rcx)
    214f:	83 c0 01             	add    $0x1,%eax
    2152:	48 89 d1             	mov    %rdx,%rcx
    2155:	83 f8 05             	cmp    $0x5,%eax
    2158:	7e e9                	jle    2143 <phase6+0xbb>
    215a:	48 c7 41 08 00 00 00 	movq   $0x0,0x8(%rcx)
    2161:	00 
    2162:	bd 00 00 00 00       	mov    $0x0,%ebp
    2167:	eb 07                	jmp    2170 <phase6+0xe8>
    2169:	48 8b 5b 08          	mov    0x8(%rbx),%rbx
    216d:	83 c5 01             	add    $0x1,%ebp
    2170:	83 fd 04             	cmp    $0x4,%ebp
    2173:	7f 16                	jg     218b <phase6+0x103>
    2175:	48 8b 43 08          	mov    0x8(%rbx),%rax
    2179:	8b 00                	mov    (%rax),%eax
    217b:	39 03                	cmp    %eax,(%rbx)
    217d:	7e ea                	jle    2169 <phase6+0xe1>
    217f:	b8 00 00 00 00       	mov    $0x0,%eax
    2184:	e8 77 05 00 00       	callq  2700 <explode_bomb>
    2189:	eb de                	jmp    2169 <phase6+0xe1>
    218b:	48 8b 44 24 58       	mov    0x58(%rsp),%rax
    2190:	64 48 33 04 25 28 00 	xor    %fs:0x28,%rax
    2197:	00 00 
    2199:	75 09                	jne    21a4 <phase6+0x11c>
    219b:	48 83 c4 60          	add    $0x60,%rsp
    219f:	5b                   	pop    %rbx
    21a0:	5d                   	pop    %rbp
    21a1:	41 5c                	pop    %r12
    21a3:	c3                   	retq   
    21a4:	e8 0f f4 ff ff       	callq  15b8 <_init+0x60>

00000000000021a9 <initialize_phase7>:
    21a9:	0f be 0d 21 46 20 00 	movsbl 0x204621(%rip),%ecx        # 2067d1 <secret+0xf1>
    21b0:	ba 5b f0 8d 21       	mov    $0x218df05b,%edx
    21b5:	89 c8                	mov    %ecx,%eax
    21b7:	f7 e2                	mul    %edx
    21b9:	c1 ea 12             	shr    $0x12,%edx
    21bc:	69 d2 7f 84 1e 00    	imul   $0x1e847f,%edx,%edx
    21c2:	29 d1                	sub    %edx,%ecx
    21c4:	89 ca                	mov    %ecx,%edx
    21c6:	81 ea 3f 42 0f 00    	sub    $0xf423f,%edx
    21cc:	89 15 6e 40 20 00    	mov    %edx,0x20406e(%rip)        # 206240 <phase7_data>
    21d2:	c3                   	retq   

00000000000021d3 <phase7>:
    21d3:	53                   	push   %rbx
    21d4:	48 83 ec 20          	sub    $0x20,%rsp
    21d8:	64 48 8b 04 25 28 00 	mov    %fs:0x28,%rax
    21df:	00 00 
    21e1:	48 89 44 24 18       	mov    %rax,0x18(%rsp)
    21e6:	31 c0                	xor    %eax,%eax
    21e8:	ba 00 00 00 00       	mov    $0x0,%edx
    21ed:	be 00 00 00 00       	mov    $0x0,%esi
    21f2:	e8 59 f4 ff ff       	callq  1650 <_init+0xf8>
    21f7:	89 44 24 10          	mov    %eax,0x10(%rsp)
    21fb:	89 c6                	mov    %eax,%esi
    21fd:	c1 ee 17             	shr    $0x17,%esi
    2200:	40 0f b6 f6          	movzbl %sil,%esi
    2204:	89 c2                	mov    %eax,%edx
    2206:	81 e2 ff ff 7f 00    	and    $0x7fffff,%edx
    220c:	c1 f8 1f             	sar    $0x1f,%eax
    220f:	83 fe 7e             	cmp    $0x7e,%esi
    2212:	76 6c                	jbe    2280 <phase7+0xad>
    2214:	bb ff ff ff ff       	mov    $0xffffffff,%ebx
    2219:	81 ca 00 00 80 00    	or     $0x800000,%edx
    221f:	b9 96 00 00 00       	mov    $0x96,%ecx
    2224:	29 f1                	sub    %esi,%ecx
    2226:	d3 ea                	shr    %cl,%edx
    2228:	21 da                	and    %ebx,%edx
    222a:	89 d3                	mov    %edx,%ebx
    222c:	f7 db                	neg    %ebx
    222e:	31 d3                	xor    %edx,%ebx
    2230:	21 c3                	and    %eax,%ebx
    2232:	31 d3                	xor    %edx,%ebx
    2234:	3b 1d 06 40 20 00    	cmp    0x204006(%rip),%ebx        # 206240 <phase7_data>
    223a:	74 0a                	je     2246 <phase7+0x73>
    223c:	b8 00 00 00 00       	mov    $0x0,%eax
    2241:	e8 ba 04 00 00       	callq  2700 <explode_bomb>
    2246:	89 5c 24 0c          	mov    %ebx,0xc(%rsp)
    224a:	db 44 24 0c          	fildl  0xc(%rsp)
    224e:	d9 5c 24 14          	fstps  0x14(%rsp)
    2252:	48 8d 74 24 10       	lea    0x10(%rsp),%rsi
    2257:	48 8d 7c 24 14       	lea    0x14(%rsp),%rdi
    225c:	ba 04 00 00 00       	mov    $0x4,%edx
    2261:	e8 8a f3 ff ff       	callq  15f0 <_init+0x98>
    2266:	85 c0                	test   %eax,%eax
    2268:	75 1d                	jne    2287 <phase7+0xb4>
    226a:	48 8b 44 24 18       	mov    0x18(%rsp),%rax
    226f:	64 48 33 04 25 28 00 	xor    %fs:0x28,%rax
    2276:	00 00 
    2278:	75 19                	jne    2293 <phase7+0xc0>
    227a:	48 83 c4 20          	add    $0x20,%rsp
    227e:	5b                   	pop    %rbx
    227f:	c3                   	retq   
    2280:	bb 00 00 00 00       	mov    $0x0,%ebx
    2285:	eb 92                	jmp    2219 <phase7+0x46>
    2287:	b8 00 00 00 00       	mov    $0x0,%eax
    228c:	e8 6f 04 00 00       	callq  2700 <explode_bomb>
    2291:	eb d7                	jmp    226a <phase7+0x97>
    2293:	e8 20 f3 ff ff       	callq  15b8 <_init+0x60>

0000000000002298 <sigint_handler>:
    2298:	55                   	push   %rbp
    2299:	48 89 e5             	mov    %rsp,%rbp
    229c:	48 83 ec 20          	sub    $0x20,%rsp
    22a0:	89 7d ec             	mov    %edi,-0x14(%rbp)
    22a3:	48 8d 3d 5e 24 00 00 	lea    0x245e(%rip),%rdi        # 4708 <_IO_stdin_used+0x848>
    22aa:	e8 e1 f2 ff ff       	callq  1590 <_init+0x38>
    22af:	bf 03 00 00 00       	mov    $0x3,%edi
    22b4:	e8 df f3 ff ff       	callq  1698 <_init+0x140>
    22b9:	48 8b 05 80 3d 20 00 	mov    0x203d80(%rip),%rax        # 206040 <__TMC_END__>
    22c0:	48 89 c7             	mov    %rax,%rdi
    22c3:	e8 50 f3 ff ff       	callq  1618 <_init+0xc0>
    22c8:	c7 45 fc 00 00 00 00 	movl   $0x0,-0x4(%rbp)
    22cf:	eb 29                	jmp    22fa <sigint_handler+0x62>
    22d1:	48 8d 3d 6d 24 00 00 	lea    0x246d(%rip),%rdi        # 4745 <_IO_stdin_used+0x885>
    22d8:	e8 b3 f2 ff ff       	callq  1590 <_init+0x38>
    22dd:	bf 01 00 00 00       	mov    $0x1,%edi
    22e2:	e8 b1 f3 ff ff       	callq  1698 <_init+0x140>
    22e7:	48 8b 05 52 3d 20 00 	mov    0x203d52(%rip),%rax        # 206040 <__TMC_END__>
    22ee:	48 89 c7             	mov    %rax,%rdi
    22f1:	e8 22 f3 ff ff       	callq  1618 <_init+0xc0>
    22f6:	83 45 fc 01          	addl   $0x1,-0x4(%rbp)
    22fa:	e8 b1 f3 ff ff       	callq  16b0 <_init+0x158>
    22ff:	89 c1                	mov    %eax,%ecx
    2301:	ba 56 55 55 55       	mov    $0x55555556,%edx
    2306:	89 c8                	mov    %ecx,%eax
    2308:	f7 ea                	imul   %edx
    230a:	89 c8                	mov    %ecx,%eax
    230c:	c1 f8 1f             	sar    $0x1f,%eax
    230f:	29 c2                	sub    %eax,%edx
    2311:	89 d0                	mov    %edx,%eax
    2313:	01 c0                	add    %eax,%eax
    2315:	01 d0                	add    %edx,%eax
    2317:	29 c1                	sub    %eax,%ecx
    2319:	89 ca                	mov    %ecx,%edx
    231b:	8d 42 01             	lea    0x1(%rdx),%eax
    231e:	3b 45 fc             	cmp    -0x4(%rbp),%eax
    2321:	7f ae                	jg     22d1 <sigint_handler+0x39>
    2323:	48 8d 3d 1f 24 00 00 	lea    0x241f(%rip),%rdi        # 4749 <_IO_stdin_used+0x889>
    232a:	e8 61 f2 ff ff       	callq  1590 <_init+0x38>
    232f:	bf 10 00 00 00       	mov    $0x10,%edi
    2334:	e8 2f f3 ff ff       	callq  1668 <_init+0x110>

0000000000002339 <read_six_numbers>:
    2339:	55                   	push   %rbp
    233a:	48 89 e5             	mov    %rsp,%rbp
    233d:	48 83 ec 20          	sub    $0x20,%rsp
    2341:	48 89 7d e8          	mov    %rdi,-0x18(%rbp)
    2345:	48 89 75 e0          	mov    %rsi,-0x20(%rbp)
    2349:	48 8b 45 e0          	mov    -0x20(%rbp),%rax
    234d:	48 8d 78 14          	lea    0x14(%rax),%rdi
    2351:	48 8b 45 e0          	mov    -0x20(%rbp),%rax
    2355:	48 8d 70 10          	lea    0x10(%rax),%rsi
    2359:	48 8b 45 e0          	mov    -0x20(%rbp),%rax
    235d:	4c 8d 48 0c          	lea    0xc(%rax),%r9
    2361:	48 8b 45 e0          	mov    -0x20(%rbp),%rax
    2365:	4c 8d 40 08          	lea    0x8(%rax),%r8
    2369:	48 8b 45 e0          	mov    -0x20(%rbp),%rax
    236d:	48 8d 48 04          	lea    0x4(%rax),%rcx
    2371:	48 8b 55 e0          	mov    -0x20(%rbp),%rdx
    2375:	48 8b 45 e8          	mov    -0x18(%rbp),%rax
    2379:	57                   	push   %rdi
    237a:	56                   	push   %rsi
    237b:	48 8d 35 da 23 00 00 	lea    0x23da(%rip),%rsi        # 475c <_IO_stdin_used+0x89c>
    2382:	48 89 c7             	mov    %rax,%rdi
    2385:	b8 00 00 00 00       	mov    $0x0,%eax
    238a:	e8 91 f2 ff ff       	callq  1620 <_init+0xc8>
    238f:	48 83 c4 10          	add    $0x10,%rsp
    2393:	89 45 fc             	mov    %eax,-0x4(%rbp)
    2396:	83 7d fc 05          	cmpl   $0x5,-0x4(%rbp)
    239a:	7f 0a                	jg     23a6 <read_six_numbers+0x6d>
    239c:	b8 00 00 00 00       	mov    $0x0,%eax
    23a1:	e8 5a 03 00 00       	callq  2700 <explode_bomb>
    23a6:	90                   	nop
    23a7:	c9                   	leaveq 
    23a8:	c3                   	retq   

00000000000023a9 <get_seed>:
    23a9:	55                   	push   %rbp
    23aa:	48 89 e5             	mov    %rsp,%rbp
    23ad:	48 81 ec d0 00 00 00 	sub    $0xd0,%rsp
    23b4:	64 48 8b 04 25 28 00 	mov    %fs:0x28,%rax
    23bb:	00 00 
    23bd:	48 89 45 f8          	mov    %rax,-0x8(%rbp)
    23c1:	31 c0                	xor    %eax,%eax
    23c3:	48 8d 85 40 ff ff ff 	lea    -0xc0(%rbp),%rax
    23ca:	48 89 c7             	mov    %rax,%rdi
    23cd:	e8 fe 16 00 00       	callq  3ad0 <sha256_init>
    23d2:	48 8b 05 5f 3c 20 00 	mov    0x203c5f(%rip),%rax        # 206038 <username>
    23d9:	48 89 c7             	mov    %rax,%rdi
    23dc:	e8 cf f1 ff ff       	callq  15b0 <_init+0x58>
    23e1:	48 89 c2             	mov    %rax,%rdx
    23e4:	48 8b 0d 4d 3c 20 00 	mov    0x203c4d(%rip),%rcx        # 206038 <username>
    23eb:	48 8d 85 40 ff ff ff 	lea    -0xc0(%rbp),%rax
    23f2:	48 89 ce             	mov    %rcx,%rsi
    23f5:	48 89 c7             	mov    %rax,%rdi
    23f8:	e8 03 17 00 00       	callq  3b00 <sha256_update>
    23fd:	48 8b 05 2c 3c 20 00 	mov    0x203c2c(%rip),%rax        # 206030 <password>
    2404:	48 89 c7             	mov    %rax,%rdi
    2407:	e8 a4 f1 ff ff       	callq  15b0 <_init+0x58>
    240c:	48 89 c2             	mov    %rax,%rdx
    240f:	48 8b 0d 1a 3c 20 00 	mov    0x203c1a(%rip),%rcx        # 206030 <password>
    2416:	48 8d 85 40 ff ff ff 	lea    -0xc0(%rbp),%rax
    241d:	48 89 ce             	mov    %rcx,%rsi
    2420:	48 89 c7             	mov    %rax,%rdi
    2423:	e8 d8 16 00 00       	callq  3b00 <sha256_update>
    2428:	48 8d 55 b0          	lea    -0x50(%rbp),%rdx
    242c:	48 8d 85 40 ff ff ff 	lea    -0xc0(%rbp),%rax
    2433:	48 89 d6             	mov    %rdx,%rsi
    2436:	48 89 c7             	mov    %rax,%rdi
    2439:	e8 52 17 00 00       	callq  3b90 <sha256_final>
    243e:	48 8d 45 b0          	lea    -0x50(%rbp),%rax
    2442:	48 89 85 38 ff ff ff 	mov    %rax,-0xc8(%rbp)
    2449:	48 8b 85 38 ff ff ff 	mov    -0xc8(%rbp),%rax
    2450:	8b 40 04             	mov    0x4(%rax),%eax
    2453:	48 8b 75 f8          	mov    -0x8(%rbp),%rsi
    2457:	64 48 33 34 25 28 00 	xor    %fs:0x28,%rsi
    245e:	00 00 
    2460:	74 05                	je     2467 <get_seed+0xbe>
    2462:	e8 51 f1 ff ff       	callq  15b8 <_init+0x60>
    2467:	c9                   	leaveq 
    2468:	c3                   	retq   

0000000000002469 <blank_line>:
    2469:	55                   	push   %rbp
    246a:	48 89 e5             	mov    %rsp,%rbp
    246d:	48 83 ec 10          	sub    $0x10,%rsp
    2471:	48 89 7d f8          	mov    %rdi,-0x8(%rbp)
    2475:	eb 37                	jmp    24ae <blank_line+0x45>
    2477:	e8 3c f2 ff ff       	callq  16b8 <_init+0x160>
    247c:	48 8b 08             	mov    (%rax),%rcx
    247f:	48 8b 45 f8          	mov    -0x8(%rbp),%rax
    2483:	48 8d 50 01          	lea    0x1(%rax),%rdx
    2487:	48 89 55 f8          	mov    %rdx,-0x8(%rbp)
    248b:	0f b6 00             	movzbl (%rax),%eax
    248e:	48 0f be c0          	movsbq %al,%rax
    2492:	48 01 c0             	add    %rax,%rax
    2495:	48 01 c8             	add    %rcx,%rax
    2498:	0f b7 00             	movzwl (%rax),%eax
    249b:	0f b7 c0             	movzwl %ax,%eax
    249e:	25 00 20 00 00       	and    $0x2000,%eax
    24a3:	85 c0                	test   %eax,%eax
    24a5:	75 07                	jne    24ae <blank_line+0x45>
    24a7:	b8 00 00 00 00       	mov    $0x0,%eax
    24ac:	eb 10                	jmp    24be <blank_line+0x55>
    24ae:	48 8b 45 f8          	mov    -0x8(%rbp),%rax
    24b2:	0f b6 00             	movzbl (%rax),%eax
    24b5:	84 c0                	test   %al,%al
    24b7:	75 be                	jne    2477 <blank_line+0xe>
    24b9:	b8 01 00 00 00       	mov    $0x1,%eax
    24be:	c9                   	leaveq 
    24bf:	c3                   	retq   

00000000000024c0 <skip>:
    24c0:	55                   	push   %rbp
    24c1:	48 89 e5             	mov    %rsp,%rbp
    24c4:	48 83 ec 10          	sub    $0x10,%rsp
    24c8:	48 8b 05 f9 3c 20 00 	mov    0x203cf9(%rip),%rax        # 2061c8 <infile>
    24cf:	8b 15 ef 3c 20 00    	mov    0x203cef(%rip),%edx        # 2061c4 <num_input_strings>
    24d5:	48 63 d2             	movslq %edx,%rdx
    24d8:	48 89 d1             	mov    %rdx,%rcx
    24db:	48 c1 e1 07          	shl    $0x7,%rcx
    24df:	48 8d 15 7a 3d 20 00 	lea    0x203d7a(%rip),%rdx        # 206260 <input_strings>
    24e6:	48 01 d1             	add    %rdx,%rcx
    24e9:	48 89 c2             	mov    %rax,%rdx
    24ec:	be 80 00 00 00       	mov    $0x80,%esi
    24f1:	48 89 cf             	mov    %rcx,%rdi
    24f4:	e8 ff f0 ff ff       	callq  15f8 <_init+0xa0>
    24f9:	48 89 45 f8          	mov    %rax,-0x8(%rbp)
    24fd:	48 83 7d f8 00       	cmpq   $0x0,-0x8(%rbp)
    2502:	74 10                	je     2514 <skip+0x54>
    2504:	48 8b 45 f8          	mov    -0x8(%rbp),%rax
    2508:	48 89 c7             	mov    %rax,%rdi
    250b:	e8 59 ff ff ff       	callq  2469 <blank_line>
    2510:	85 c0                	test   %eax,%eax
    2512:	75 b4                	jne    24c8 <skip+0x8>
    2514:	48 8b 45 f8          	mov    -0x8(%rbp),%rax
    2518:	c9                   	leaveq 
    2519:	c3                   	retq   

000000000000251a <read_line>:
    251a:	55                   	push   %rbp
    251b:	48 89 e5             	mov    %rsp,%rbp
    251e:	48 83 ec 10          	sub    $0x10,%rsp
    2522:	b8 00 00 00 00       	mov    $0x0,%eax
    2527:	e8 94 ff ff ff       	callq  24c0 <skip>
    252c:	48 89 45 f8          	mov    %rax,-0x8(%rbp)
    2530:	48 83 7d f8 00       	cmpq   $0x0,-0x8(%rbp)
    2535:	75 4c                	jne    2583 <read_line+0x69>
    2537:	48 8b 15 8a 3c 20 00 	mov    0x203c8a(%rip),%rdx        # 2061c8 <infile>
    253e:	48 8b 05 0b 3b 20 00 	mov    0x203b0b(%rip),%rax        # 206050 <stdin@@GLIBC_2.2.5>
    2545:	48 39 c2             	cmp    %rax,%rdx
    2548:	75 0c                	jne    2556 <read_line+0x3c>
    254a:	bf 00 00 00 00       	mov    $0x0,%edi
    254f:	e8 44 fd ff ff       	callq  2298 <sigint_handler>
    2554:	eb 2d                	jmp    2583 <read_line+0x69>
    2556:	48 8b 05 f3 3a 20 00 	mov    0x203af3(%rip),%rax        # 206050 <stdin@@GLIBC_2.2.5>
    255d:	48 89 05 64 3c 20 00 	mov    %rax,0x203c64(%rip)        # 2061c8 <infile>
    2564:	b8 00 00 00 00       	mov    $0x0,%eax
    2569:	e8 52 ff ff ff       	callq  24c0 <skip>
    256e:	48 89 45 f8          	mov    %rax,-0x8(%rbp)
    2572:	48 83 7d f8 00       	cmpq   $0x0,-0x8(%rbp)
    2577:	75 0a                	jne    2583 <read_line+0x69>
    2579:	bf 00 00 00 00       	mov    $0x0,%edi
    257e:	e8 15 fd ff ff       	callq  2298 <sigint_handler>
    2583:	8b 05 3b 3c 20 00    	mov    0x203c3b(%rip),%eax        # 2061c4 <num_input_strings>
    2589:	48 98                	cltq   
    258b:	48 c1 e0 07          	shl    $0x7,%rax
    258f:	48 89 c2             	mov    %rax,%rdx
    2592:	48 8d 05 c7 3c 20 00 	lea    0x203cc7(%rip),%rax        # 206260 <input_strings>
    2599:	48 01 d0             	add    %rdx,%rax
    259c:	48 89 c7             	mov    %rax,%rdi
    259f:	e8 0c f0 ff ff       	callq  15b0 <_init+0x58>
    25a4:	89 45 f4             	mov    %eax,-0xc(%rbp)
    25a7:	83 7d f4 7e          	cmpl   $0x7e,-0xc(%rbp)
    25ab:	7e 3a                	jle    25e7 <read_line+0xcd>
    25ad:	8b 45 f4             	mov    -0xc(%rbp),%eax
    25b0:	83 e8 7f             	sub    $0x7f,%eax
    25b3:	48 98                	cltq   
    25b5:	8b 15 09 3c 20 00    	mov    0x203c09(%rip),%edx        # 2061c4 <num_input_strings>
    25bb:	48 63 d2             	movslq %edx,%rdx
    25be:	48 c1 e2 07          	shl    $0x7,%rdx
    25c2:	48 8d 4a 7f          	lea    0x7f(%rdx),%rcx
    25c6:	48 8d 15 93 3c 20 00 	lea    0x203c93(%rip),%rdx        # 206260 <input_strings>
    25cd:	48 01 d1             	add    %rdx,%rcx
    25d0:	48 89 c2             	mov    %rax,%rdx
    25d3:	be 00 00 00 00       	mov    $0x0,%esi
    25d8:	48 89 cf             	mov    %rcx,%rdi
    25db:	e8 f0 ef ff ff       	callq  15d0 <_init+0x78>
    25e0:	c7 45 f4 7f 00 00 00 	movl   $0x7f,-0xc(%rbp)
    25e7:	8b 15 d7 3b 20 00    	mov    0x203bd7(%rip),%edx        # 2061c4 <num_input_strings>
    25ed:	8b 45 f4             	mov    -0xc(%rbp),%eax
    25f0:	83 e8 01             	sub    $0x1,%eax
    25f3:	48 98                	cltq   
    25f5:	48 63 d2             	movslq %edx,%rdx
    25f8:	48 c1 e2 07          	shl    $0x7,%rdx
    25fc:	48 01 c2             	add    %rax,%rdx
    25ff:	48 8d 05 5a 3c 20 00 	lea    0x203c5a(%rip),%rax        # 206260 <input_strings>
    2606:	48 01 d0             	add    %rdx,%rax
    2609:	c6 00 00             	movb   $0x0,(%rax)
    260c:	8b 05 b2 3b 20 00    	mov    0x203bb2(%rip),%eax        # 2061c4 <num_input_strings>
    2612:	8d 50 01             	lea    0x1(%rax),%edx
    2615:	89 15 a9 3b 20 00    	mov    %edx,0x203ba9(%rip)        # 2061c4 <num_input_strings>
    261b:	48 98                	cltq   
    261d:	48 c1 e0 07          	shl    $0x7,%rax
    2621:	48 89 c2             	mov    %rax,%rdx
    2624:	48 8d 05 35 3c 20 00 	lea    0x203c35(%rip),%rax        # 206260 <input_strings>
    262b:	48 01 d0             	add    %rdx,%rax
    262e:	c9                   	leaveq 
    262f:	c3                   	retq   

0000000000002630 <send_msg>:
    2630:	55                   	push   %rbp
    2631:	48 89 e5             	mov    %rsp,%rbp
    2634:	48 81 ec e0 00 00 00 	sub    $0xe0,%rsp
    263b:	89 bd 2c ff ff ff    	mov    %edi,-0xd4(%rbp)
    2641:	64 48 8b 04 25 28 00 	mov    %fs:0x28,%rax
    2648:	00 00 
    264a:	48 89 45 f8          	mov    %rax,-0x8(%rbp)
    264e:	31 c0                	xor    %eax,%eax
    2650:	8b 05 6e 3b 20 00    	mov    0x203b6e(%rip),%eax        # 2061c4 <num_input_strings>
    2656:	83 e8 01             	sub    $0x1,%eax
    2659:	48 98                	cltq   
    265b:	48 c1 e0 07          	shl    $0x7,%rax
    265f:	48 89 c2             	mov    %rax,%rdx
    2662:	48 8d 05 f7 3b 20 00 	lea    0x203bf7(%rip),%rax        # 206260 <input_strings>
    2669:	48 8d 3c 02          	lea    (%rdx,%rax,1),%rdi
    266d:	8b 35 51 3b 20 00    	mov    0x203b51(%rip),%esi        # 2061c4 <num_input_strings>
    2673:	8b 15 97 39 20 00    	mov    0x203997(%rip),%edx        # 206010 <bomb_id>
    2679:	8b 8d 2c ff ff ff    	mov    -0xd4(%rbp),%ecx
    267f:	48 8d 85 30 ff ff ff 	lea    -0xd0(%rbp),%rax
    2686:	49 89 f9             	mov    %rdi,%r9
    2689:	41 89 f0             	mov    %esi,%r8d
    268c:	48 8d 35 db 20 00 00 	lea    0x20db(%rip),%rsi        # 476e <_IO_stdin_used+0x8ae>
    2693:	48 89 c7             	mov    %rax,%rdi
    2696:	b8 00 00 00 00       	mov    $0x0,%eax
    269b:	e8 c0 ef ff ff       	callq  1660 <_init+0x108>
    26a0:	48 8b 0d 89 39 20 00 	mov    0x203989(%rip),%rcx        # 206030 <password>
    26a7:	48 8b 15 8a 39 20 00 	mov    0x20398a(%rip),%rdx        # 206038 <username>
    26ae:	48 8b 35 63 39 20 00 	mov    0x203963(%rip),%rsi        # 206018 <server_port>
    26b5:	48 8b 05 64 39 20 00 	mov    0x203964(%rip),%rax        # 206020 <server_hostname>
    26bc:	48 8d bd 30 ff ff ff 	lea    -0xd0(%rbp),%rdi
    26c3:	49 89 f8             	mov    %rdi,%r8
    26c6:	48 89 c7             	mov    %rax,%rdi
    26c9:	e8 12 09 00 00       	callq  2fe0 <driver_post>
    26ce:	83 f8 ff             	cmp    $0xffffffff,%eax
    26d1:	75 16                	jne    26e9 <send_msg+0xb9>
    26d3:	48 8d 3d a6 20 00 00 	lea    0x20a6(%rip),%rdi        # 4780 <_IO_stdin_used+0x8c0>
    26da:	e8 69 ef ff ff       	callq  1648 <_init+0xf0>
    26df:	bf 10 00 00 00       	mov    $0x10,%edi
    26e4:	e8 7f ef ff ff       	callq  1668 <_init+0x110>
    26e9:	90                   	nop
    26ea:	48 8b 45 f8          	mov    -0x8(%rbp),%rax
    26ee:	64 48 33 04 25 28 00 	xor    %fs:0x28,%rax
    26f5:	00 00 
    26f7:	74 05                	je     26fe <send_msg+0xce>
    26f9:	e8 ba ee ff ff       	callq  15b8 <_init+0x60>
    26fe:	c9                   	leaveq 
    26ff:	c3                   	retq   

0000000000002700 <explode_bomb>:
    2700:	55                   	push   %rbp
    2701:	48 89 e5             	mov    %rsp,%rbp
    2704:	48 8d 3d 9d 20 00 00 	lea    0x209d(%rip),%rdi        # 47a8 <_IO_stdin_used+0x8e8>
    270b:	e8 80 ee ff ff       	callq  1590 <_init+0x38>
    2710:	48 8d 3d 9a 20 00 00 	lea    0x209a(%rip),%rdi        # 47b1 <_IO_stdin_used+0x8f1>
    2717:	e8 74 ee ff ff       	callq  1590 <_init+0x38>
    271c:	bf 00 00 00 00       	mov    $0x0,%edi
    2721:	e8 0a ff ff ff       	callq  2630 <send_msg>
    2726:	48 8d 3d 9b 20 00 00 	lea    0x209b(%rip),%rdi        # 47c8 <_IO_stdin_used+0x908>
    272d:	e8 5e ee ff ff       	callq  1590 <_init+0x38>
    2732:	bf 08 00 00 00       	mov    $0x8,%edi
    2737:	e8 2c ef ff ff       	callq  1668 <_init+0x110>

000000000000273c <test_secret_code>:
    273c:	55                   	push   %rbp
    273d:	48 89 e5             	mov    %rsp,%rbp
    2740:	48 83 ec 60          	sub    $0x60,%rsp
    2744:	89 7d ac             	mov    %edi,-0x54(%rbp)
    2747:	89 75 a8             	mov    %esi,-0x58(%rbp)
    274a:	64 48 8b 04 25 28 00 	mov    %fs:0x28,%rax
    2751:	00 00 
    2753:	48 89 45 f8          	mov    %rax,-0x8(%rbp)
    2757:	31 c0                	xor    %eax,%eax
    2759:	c7 45 d0 00 00 00 00 	movl   $0x0,-0x30(%rbp)
    2760:	c7 45 d4 00 00 00 00 	movl   $0x0,-0x2c(%rbp)
    2767:	c7 45 d8 07 00 00 00 	movl   $0x7,-0x28(%rbp)
    276e:	c7 45 dc 03 00 00 00 	movl   $0x3,-0x24(%rbp)
    2775:	c7 45 e0 03 00 00 00 	movl   $0x3,-0x20(%rbp)
    277c:	c7 45 e4 00 00 00 00 	movl   $0x0,-0x1c(%rbp)
    2783:	c7 45 e8 07 00 00 00 	movl   $0x7,-0x18(%rbp)
    278a:	83 7d ac 06          	cmpl   $0x6,-0x54(%rbp)
    278e:	7f 13                	jg     27a3 <test_secret_code+0x67>
    2790:	83 7d ac 00          	cmpl   $0x0,-0x54(%rbp)
    2794:	78 0d                	js     27a3 <test_secret_code+0x67>
    2796:	8b 45 ac             	mov    -0x54(%rbp),%eax
    2799:	48 98                	cltq   
    279b:	8b 44 85 d0          	mov    -0x30(%rbp,%rax,4),%eax
    279f:	85 c0                	test   %eax,%eax
    27a1:	75 0a                	jne    27ad <test_secret_code+0x71>
    27a3:	b8 00 00 00 00       	mov    $0x0,%eax
    27a8:	e9 b9 00 00 00       	jmpq   2866 <test_secret_code+0x12a>
    27ad:	8b 45 ac             	mov    -0x54(%rbp),%eax
    27b0:	83 e8 01             	sub    $0x1,%eax
    27b3:	48 98                	cltq   
    27b5:	48 c1 e0 07          	shl    $0x7,%rax
    27b9:	48 89 c2             	mov    %rax,%rdx
    27bc:	48 8d 05 9d 3a 20 00 	lea    0x203a9d(%rip),%rax        # 206260 <input_strings>
    27c3:	48 01 d0             	add    %rdx,%rax
    27c6:	48 89 c7             	mov    %rax,%rdi
    27c9:	e8 c2 ee ff ff       	callq  1690 <_init+0x138>
    27ce:	48 89 45 c0          	mov    %rax,-0x40(%rbp)
    27d2:	c7 45 bc 00 00 00 00 	movl   $0x0,-0x44(%rbp)
    27d9:	eb 25                	jmp    2800 <test_secret_code+0xc4>
    27db:	48 8b 45 c0          	mov    -0x40(%rbp),%rax
    27df:	be 20 00 00 00       	mov    $0x20,%esi
    27e4:	48 89 c7             	mov    %rax,%rdi
    27e7:	e8 d4 ed ff ff       	callq  15c0 <_init+0x68>
    27ec:	48 89 45 c0          	mov    %rax,-0x40(%rbp)
    27f0:	48 83 7d c0 00       	cmpq   $0x0,-0x40(%rbp)
    27f5:	74 05                	je     27fc <test_secret_code+0xc0>
    27f7:	48 83 45 c0 01       	addq   $0x1,-0x40(%rbp)
    27fc:	83 45 bc 01          	addl   $0x1,-0x44(%rbp)
    2800:	8b 45 ac             	mov    -0x54(%rbp),%eax
    2803:	48 98                	cltq   
    2805:	8b 44 85 d0          	mov    -0x30(%rbp,%rax,4),%eax
    2809:	83 e8 01             	sub    $0x1,%eax
    280c:	3b 45 bc             	cmp    -0x44(%rbp),%eax
    280f:	7e 07                	jle    2818 <test_secret_code+0xdc>
    2811:	48 83 7d c0 00       	cmpq   $0x0,-0x40(%rbp)
    2816:	75 c3                	jne    27db <test_secret_code+0x9f>
    2818:	48 83 7d c0 00       	cmpq   $0x0,-0x40(%rbp)
    281d:	75 07                	jne    2826 <test_secret_code+0xea>
    281f:	b8 00 00 00 00       	mov    $0x0,%eax
    2824:	eb 40                	jmp    2866 <test_secret_code+0x12a>
    2826:	48 8b 45 c0          	mov    -0x40(%rbp),%rax
    282a:	be 20 00 00 00       	mov    $0x20,%esi
    282f:	48 89 c7             	mov    %rax,%rdi
    2832:	e8 89 ed ff ff       	callq  15c0 <_init+0x68>
    2837:	48 89 45 c8          	mov    %rax,-0x38(%rbp)
    283b:	48 83 7d c8 00       	cmpq   $0x0,-0x38(%rbp)
    2840:	74 07                	je     2849 <test_secret_code+0x10d>
    2842:	48 8b 45 c8          	mov    -0x38(%rbp),%rax
    2846:	c6 00 00             	movb   $0x0,(%rax)
    2849:	48 8b 45 c0          	mov    -0x40(%rbp),%rax
    284d:	48 89 c7             	mov    %rax,%rdi
    2850:	e8 03 ee ff ff       	callq  1658 <_init+0x100>
    2855:	3b 45 a8             	cmp    -0x58(%rbp),%eax
    2858:	75 07                	jne    2861 <test_secret_code+0x125>
    285a:	b8 01 00 00 00       	mov    $0x1,%eax
    285f:	eb 05                	jmp    2866 <test_secret_code+0x12a>
    2861:	b8 ff ff ff ff       	mov    $0xffffffff,%eax
    2866:	48 8b 4d f8          	mov    -0x8(%rbp),%rcx
    286a:	64 48 33 0c 25 28 00 	xor    %fs:0x28,%rcx
    2871:	00 00 
    2873:	74 05                	je     287a <test_secret_code+0x13e>
    2875:	e8 3e ed ff ff       	callq  15b8 <_init+0x60>
    287a:	c9                   	leaveq 
    287b:	c3                   	retq   

000000000000287c <phase_defused>:
    287c:	55                   	push   %rbp
    287d:	48 89 e5             	mov    %rsp,%rbp
    2880:	48 83 ec 10          	sub    $0x10,%rsp
    2884:	b8 00 00 00 00       	mov    $0x0,%eax
    2889:	e8 c6 01 00 00       	callq  2a54 <get_secret_phase_entry_point>
    288e:	89 45 f8             	mov    %eax,-0x8(%rbp)
    2891:	8b 05 2d 39 20 00    	mov    0x20392d(%rip),%eax        # 2061c4 <num_input_strings>
    2897:	39 45 f8             	cmp    %eax,-0x8(%rbp)
    289a:	75 3a                	jne    28d6 <phase_defused+0x5a>
    289c:	0f b6 05 f2 4d 20 00 	movzbl 0x204df2(%rip),%eax        # 207695 <secret+0xfb5>
    28a3:	0f be d0             	movsbl %al,%edx
    28a6:	0f b6 05 e9 4d 20 00 	movzbl 0x204de9(%rip),%eax        # 207696 <secret+0xfb6>
    28ad:	0f be c0             	movsbl %al,%eax
    28b0:	0f af c2             	imul   %edx,%eax
    28b3:	25 ff 0f 00 00       	and    $0xfff,%eax
    28b8:	83 c0 01             	add    $0x1,%eax
    28bb:	89 c2                	mov    %eax,%edx
    28bd:	8b 05 01 39 20 00    	mov    0x203901(%rip),%eax        # 2061c4 <num_input_strings>
    28c3:	89 d6                	mov    %edx,%esi
    28c5:	89 c7                	mov    %eax,%edi
    28c7:	e8 70 fe ff ff       	callq  273c <test_secret_code>
    28cc:	83 f8 ff             	cmp    $0xffffffff,%eax
    28cf:	75 05                	jne    28d6 <phase_defused+0x5a>
    28d1:	e8 2a fe ff ff       	callq  2700 <explode_bomb>
    28d6:	8b 05 e8 38 20 00    	mov    0x2038e8(%rip),%eax        # 2061c4 <num_input_strings>
    28dc:	39 45 f8             	cmp    %eax,-0x8(%rbp)
    28df:	74 3a                	je     291b <phase_defused+0x9f>
    28e1:	0f b6 05 ad 4d 20 00 	movzbl 0x204dad(%rip),%eax        # 207695 <secret+0xfb5>
    28e8:	0f be d0             	movsbl %al,%edx
    28eb:	0f b6 05 a4 4d 20 00 	movzbl 0x204da4(%rip),%eax        # 207696 <secret+0xfb6>
    28f2:	0f be c0             	movsbl %al,%eax
    28f5:	0f af c2             	imul   %edx,%eax
    28f8:	25 ff 0f 00 00       	and    $0xfff,%eax
    28fd:	83 c0 01             	add    $0x1,%eax
    2900:	89 c2                	mov    %eax,%edx
    2902:	8b 05 bc 38 20 00    	mov    0x2038bc(%rip),%eax        # 2061c4 <num_input_strings>
    2908:	89 d6                	mov    %edx,%esi
    290a:	89 c7                	mov    %eax,%edi
    290c:	e8 2b fe ff ff       	callq  273c <test_secret_code>
    2911:	83 f8 01             	cmp    $0x1,%eax
    2914:	75 05                	jne    291b <phase_defused+0x9f>
    2916:	e8 e5 fd ff ff       	callq  2700 <explode_bomb>
    291b:	bf 01 00 00 00       	mov    $0x1,%edi
    2920:	e8 0b fd ff ff       	callq  2630 <send_msg>
    2925:	8b 05 99 38 20 00    	mov    0x203899(%rip),%eax        # 2061c4 <num_input_strings>
    292b:	83 f8 06             	cmp    $0x6,%eax
    292e:	75 7c                	jne    29ac <phase_defused+0x130>
    2930:	0f b6 05 5e 4d 20 00 	movzbl 0x204d5e(%rip),%eax        # 207695 <secret+0xfb5>
    2937:	0f be d0             	movsbl %al,%edx
    293a:	0f b6 05 55 4d 20 00 	movzbl 0x204d55(%rip),%eax        # 207696 <secret+0xfb6>
    2941:	0f be c0             	movsbl %al,%eax
    2944:	0f af c2             	imul   %edx,%eax
    2947:	25 ff 0f 00 00       	and    $0xfff,%eax
    294c:	83 c0 01             	add    $0x1,%eax
    294f:	89 c2                	mov    %eax,%edx
    2951:	8b 45 f8             	mov    -0x8(%rbp),%eax
    2954:	89 d6                	mov    %edx,%esi
    2956:	89 c7                	mov    %eax,%edi
    2958:	e8 df fd ff ff       	callq  273c <test_secret_code>
    295d:	89 45 fc             	mov    %eax,-0x4(%rbp)
    2960:	83 7d fc 01          	cmpl   $0x1,-0x4(%rbp)
    2964:	75 2e                	jne    2994 <phase_defused+0x118>
    2966:	48 8d 3d 83 1e 00 00 	lea    0x1e83(%rip),%rdi        # 47f0 <_IO_stdin_used+0x930>
    296d:	e8 1e ec ff ff       	callq  1590 <_init+0x38>
    2972:	b8 00 00 00 00       	mov    $0x0,%eax
    2977:	e8 6c 14 00 00       	callq  3de8 <secret_phase>
    297c:	48 8d 3d bd 1e 00 00 	lea    0x1ebd(%rip),%rdi        # 4840 <_IO_stdin_used+0x980>
    2983:	e8 08 ec ff ff       	callq  1590 <_init+0x38>
    2988:	bf 01 00 00 00       	mov    $0x1,%edi
    298d:	e8 9e fc ff ff       	callq  2630 <send_msg>
    2992:	eb 0c                	jmp    29a0 <phase_defused+0x124>
    2994:	48 8d 3d f5 1e 00 00 	lea    0x1ef5(%rip),%rdi        # 4890 <_IO_stdin_used+0x9d0>
    299b:	e8 f0 eb ff ff       	callq  1590 <_init+0x38>
    29a0:	48 8d 3d 19 1f 00 00 	lea    0x1f19(%rip),%rdi        # 48c0 <_IO_stdin_used+0xa00>
    29a7:	e8 e4 eb ff ff       	callq  1590 <_init+0x38>
    29ac:	90                   	nop
    29ad:	c9                   	leaveq 
    29ae:	c3                   	retq   

00000000000029af <initialize_bomb>:
    29af:	55                   	push   %rbp
    29b0:	48 89 e5             	mov    %rsp,%rbp
    29b3:	48 83 ec 20          	sub    $0x20,%rsp
    29b7:	89 7d ec             	mov    %edi,-0x14(%rbp)
    29ba:	48 89 75 e0          	mov    %rsi,-0x20(%rbp)
    29be:	48 8d 35 d3 f8 ff ff 	lea    -0x72d(%rip),%rsi        # 2298 <sigint_handler>
    29c5:	bf 02 00 00 00       	mov    $0x2,%edi
    29ca:	e8 31 ec ff ff       	callq  1600 <_init+0xa8>
    29cf:	48 8d 35 c2 f8 ff ff 	lea    -0x73e(%rip),%rsi        # 2298 <sigint_handler>
    29d6:	bf 09 00 00 00       	mov    $0x9,%edi
    29db:	e8 20 ec ff ff       	callq  1600 <_init+0xa8>
    29e0:	e8 c4 f9 ff ff       	callq  23a9 <get_seed>
    29e5:	89 c7                	mov    %eax,%edi
    29e7:	e8 fc eb ff ff       	callq  15e8 <_init+0x90>
    29ec:	c7 45 fc 00 00 00 00 	movl   $0x0,-0x4(%rbp)
    29f3:	eb 1b                	jmp    2a10 <initialize_bomb+0x61>
    29f5:	e8 b6 ec ff ff       	callq  16b0 <_init+0x158>
    29fa:	89 c1                	mov    %eax,%ecx
    29fc:	8b 45 fc             	mov    -0x4(%rbp),%eax
    29ff:	48 63 d0             	movslq %eax,%rdx
    2a02:	48 8d 05 d7 3c 20 00 	lea    0x203cd7(%rip),%rax        # 2066e0 <secret>
    2a09:	88 0c 02             	mov    %cl,(%rdx,%rax,1)
    2a0c:	83 45 fc 01          	addl   $0x1,-0x4(%rbp)
    2a10:	81 7d fc ff 0f 00 00 	cmpl   $0xfff,-0x4(%rbp)
    2a17:	7e dc                	jle    29f5 <initialize_bomb+0x46>
    2a19:	48 8b 45 e0          	mov    -0x20(%rbp),%rax
    2a1d:	48 8b 10             	mov    (%rax),%rdx
    2a20:	48 8b 0d f1 35 20 00 	mov    0x2035f1(%rip),%rcx        # 206018 <server_port>
    2a27:	48 8b 05 f2 35 20 00 	mov    0x2035f2(%rip),%rax        # 206020 <server_hostname>
    2a2e:	48 89 ce             	mov    %rcx,%rsi
    2a31:	48 89 c7             	mov    %rax,%rdi
    2a34:	e8 97 01 00 00       	callq  2bd0 <driver_initialize>
    2a39:	85 c0                	test   %eax,%eax
    2a3b:	75 0a                	jne    2a47 <initialize_bomb+0x98>
    2a3d:	bf 10 00 00 00       	mov    $0x10,%edi
    2a42:	e8 21 ec ff ff       	callq  1668 <_init+0x110>
    2a47:	b8 00 00 00 00       	mov    $0x0,%eax
    2a4c:	e8 48 13 00 00       	callq  3d99 <initialize_phases>
    2a51:	90                   	nop
    2a52:	c9                   	leaveq 
    2a53:	c3                   	retq   

0000000000002a54 <get_secret_phase_entry_point>:
    2a54:	55                   	push   %rbp
    2a55:	48 89 e5             	mov    %rsp,%rbp
    2a58:	0f b6 05 35 4c 20 00 	movzbl 0x204c35(%rip),%eax        # 207694 <secret+0xfb4>
    2a5f:	0f be c8             	movsbl %al,%ecx
    2a62:	ba ab aa aa aa       	mov    $0xaaaaaaab,%edx
    2a67:	89 c8                	mov    %ecx,%eax
    2a69:	f7 e2                	mul    %edx
    2a6b:	c1 ea 02             	shr    $0x2,%edx
    2a6e:	89 d0                	mov    %edx,%eax
    2a70:	01 c0                	add    %eax,%eax
    2a72:	01 d0                	add    %edx,%eax
    2a74:	01 c0                	add    %eax,%eax
    2a76:	29 c1                	sub    %eax,%ecx
    2a78:	89 ca                	mov    %ecx,%edx
    2a7a:	8d 42 01             	lea    0x1(%rdx),%eax
    2a7d:	89 45 fc             	mov    %eax,-0x4(%rbp)
    2a80:	83 7d fc 01          	cmpl   $0x1,-0x4(%rbp)
    2a84:	74 06                	je     2a8c <get_secret_phase_entry_point+0x38>
    2a86:	83 7d fc 05          	cmpl   $0x5,-0x4(%rbp)
    2a8a:	75 04                	jne    2a90 <get_secret_phase_entry_point+0x3c>
    2a8c:	83 45 fc 01          	addl   $0x1,-0x4(%rbp)
    2a90:	8b 45 fc             	mov    -0x4(%rbp),%eax
    2a93:	5d                   	pop    %rbp
    2a94:	c3                   	retq   
    2a95:	66 2e 0f 1f 84 00 00 	nopw   %cs:0x0(%rax,%rax,1)
    2a9c:	00 00 00 
    2a9f:	90                   	nop

0000000000002aa0 <driver_get_socket>:
    2aa0:	41 55                	push   %r13
    2aa2:	41 54                	push   %r12
    2aa4:	b9 06 00 00 00       	mov    $0x6,%ecx
    2aa9:	55                   	push   %rbp
    2aaa:	53                   	push   %rbx
    2aab:	49 89 fc             	mov    %rdi,%r12
    2aae:	49 89 f5             	mov    %rsi,%r13
    2ab1:	48 83 ec 58          	sub    $0x58,%rsp
    2ab5:	48 8d 54 24 10       	lea    0x10(%rsp),%rdx
    2aba:	64 48 8b 04 25 28 00 	mov    %fs:0x28,%rax
    2ac1:	00 00 
    2ac3:	48 89 44 24 48       	mov    %rax,0x48(%rsp)
    2ac8:	31 c0                	xor    %eax,%eax
    2aca:	48 89 d7             	mov    %rdx,%rdi
    2acd:	f3 48 ab             	rep stos %rax,%es:(%rdi)
    2ad0:	48 8d 4c 24 08       	lea    0x8(%rsp),%rcx
    2ad5:	4c 89 e7             	mov    %r12,%rdi
    2ad8:	c7 44 24 18 01 00 00 	movl   $0x1,0x18(%rsp)
    2adf:	00 
    2ae0:	e8 a3 eb ff ff       	callq  1688 <_init+0x130>
    2ae5:	85 c0                	test   %eax,%eax
    2ae7:	0f 85 a3 00 00 00    	jne    2b90 <driver_get_socket+0xf0>
    2aed:	48 8b 5c 24 08       	mov    0x8(%rsp),%rbx
    2af2:	48 85 db             	test   %rbx,%rbx
    2af5:	74 72                	je     2b69 <driver_get_socket+0xc9>
    2af7:	8b 53 0c             	mov    0xc(%rbx),%edx
    2afa:	8b 73 08             	mov    0x8(%rbx),%esi
    2afd:	8b 7b 04             	mov    0x4(%rbx),%edi
    2b00:	e8 cb eb ff ff       	callq  16d0 <_init+0x178>
    2b05:	83 f8 ff             	cmp    $0xffffffff,%eax
    2b08:	89 c5                	mov    %eax,%ebp
    2b0a:	74 54                	je     2b60 <driver_get_socket+0xc0>
    2b0c:	8b 53 10             	mov    0x10(%rbx),%edx
    2b0f:	48 8b 73 18          	mov    0x18(%rbx),%rsi
    2b13:	89 c7                	mov    %eax,%edi
    2b15:	e8 56 eb ff ff       	callq  1670 <_init+0x118>
    2b1a:	83 f8 ff             	cmp    $0xffffffff,%eax
    2b1d:	74 31                	je     2b50 <driver_get_socket+0xb0>
    2b1f:	48 8b 7c 24 08       	mov    0x8(%rsp),%rdi
    2b24:	e8 97 eb ff ff       	callq  16c0 <_init+0x168>
    2b29:	48 8b 4c 24 48       	mov    0x48(%rsp),%rcx
    2b2e:	64 48 33 0c 25 28 00 	xor    %fs:0x28,%rcx
    2b35:	00 00 
    2b37:	89 e8                	mov    %ebp,%eax
    2b39:	0f 85 85 00 00 00    	jne    2bc4 <driver_get_socket+0x124>
    2b3f:	48 83 c4 58          	add    $0x58,%rsp
    2b43:	5b                   	pop    %rbx
    2b44:	5d                   	pop    %rbp
    2b45:	41 5c                	pop    %r12
    2b47:	41 5d                	pop    %r13
    2b49:	c3                   	retq   
    2b4a:	66 0f 1f 44 00 00    	nopw   0x0(%rax,%rax,1)
    2b50:	89 ef                	mov    %ebp,%edi
    2b52:	e8 81 ea ff ff       	callq  15d8 <_init+0x80>
    2b57:	66 0f 1f 84 00 00 00 	nopw   0x0(%rax,%rax,1)
    2b5e:	00 00 
    2b60:	48 8b 5b 28          	mov    0x28(%rbx),%rbx
    2b64:	48 85 db             	test   %rbx,%rbx
    2b67:	75 8e                	jne    2af7 <driver_get_socket+0x57>
    2b69:	48 8b 3d f0 34 20 00 	mov    0x2034f0(%rip),%rdi        # 206060 <stderr@@GLIBC_2.2.5>
    2b70:	48 8d 15 31 1f 00 00 	lea    0x1f31(%rip),%rdx        # 4aa8 <_IO_stdin_used+0xbe8>
    2b77:	4d 89 e8             	mov    %r13,%r8
    2b7a:	4c 89 e1             	mov    %r12,%rcx
    2b7d:	be 01 00 00 00       	mov    $0x1,%esi
    2b82:	31 c0                	xor    %eax,%eax
    2b84:	bd ff ff ff ff       	mov    $0xffffffff,%ebp
    2b89:	e8 f2 ea ff ff       	callq  1680 <_init+0x128>
    2b8e:	eb 99                	jmp    2b29 <driver_get_socket+0x89>
    2b90:	89 c7                	mov    %eax,%edi
    2b92:	bd ff ff ff ff       	mov    $0xffffffff,%ebp
    2b97:	e8 2c ea ff ff       	callq  15c8 <_init+0x70>
    2b9c:	48 8b 3d bd 34 20 00 	mov    0x2034bd(%rip),%rdi        # 206060 <stderr@@GLIBC_2.2.5>
    2ba3:	48 8d 15 5e 1d 00 00 	lea    0x1d5e(%rip),%rdx        # 4908 <_IO_stdin_used+0xa48>
    2baa:	49 89 c1             	mov    %rax,%r9
    2bad:	4d 89 e8             	mov    %r13,%r8
    2bb0:	4c 89 e1             	mov    %r12,%rcx
    2bb3:	be 01 00 00 00       	mov    $0x1,%esi
    2bb8:	31 c0                	xor    %eax,%eax
    2bba:	e8 c1 ea ff ff       	callq  1680 <_init+0x128>
    2bbf:	e9 65 ff ff ff       	jmpq   2b29 <driver_get_socket+0x89>
    2bc4:	e8 ef e9 ff ff       	callq  15b8 <_init+0x60>
    2bc9:	0f 1f 80 00 00 00 00 	nopl   0x0(%rax)

0000000000002bd0 <driver_initialize>:
    2bd0:	41 57                	push   %r15
    2bd2:	41 56                	push   %r14
    2bd4:	41 55                	push   %r13
    2bd6:	41 54                	push   %r12
    2bd8:	55                   	push   %rbp
    2bd9:	53                   	push   %rbx
    2bda:	48 89 d3             	mov    %rdx,%rbx
    2bdd:	48 81 ec f8 10 00 00 	sub    $0x10f8,%rsp
    2be4:	64 48 8b 04 25 28 00 	mov    %fs:0x28,%rax
    2beb:	00 00 
    2bed:	48 89 84 24 e8 10 00 	mov    %rax,0x10e8(%rsp)
    2bf4:	00 
    2bf5:	31 c0                	xor    %eax,%eax
    2bf7:	48 89 7c 24 18       	mov    %rdi,0x18(%rsp)
    2bfc:	e8 9f fe ff ff       	callq  2aa0 <driver_get_socket>
    2c01:	83 f8 ff             	cmp    $0xffffffff,%eax
    2c04:	0f 84 46 03 00 00    	je     2f50 <driver_initialize+0x380>
    2c0a:	48 8d 6c 24 20       	lea    0x20(%rsp),%rbp
    2c0f:	41 89 c5             	mov    %eax,%r13d
    2c12:	48 89 ef             	mov    %rbp,%rdi
    2c15:	e8 b6 0e 00 00       	callq  3ad0 <sha256_init>
    2c1a:	48 8d 35 a3 1e 00 00 	lea    0x1ea3(%rip),%rsi        # 4ac4 <_IO_stdin_used+0xc04>
    2c21:	48 89 df             	mov    %rbx,%rdi
    2c24:	48 8d 9c 24 e0 00 00 	lea    0xe0(%rsp),%rbx
    2c2b:	00 
    2c2c:	e8 0f ea ff ff       	callq  1640 <_init+0xe8>
    2c31:	48 89 44 24 08       	mov    %rax,0x8(%rsp)
    2c36:	48 89 c1             	mov    %rax,%rcx
    2c39:	eb 18                	jmp    2c53 <driver_initialize+0x83>
    2c3b:	0f 1f 44 00 00       	nopl   0x0(%rax,%rax,1)
    2c40:	48 63 d0             	movslq %eax,%rdx
    2c43:	48 89 de             	mov    %rbx,%rsi
    2c46:	48 89 ef             	mov    %rbp,%rdi
    2c49:	e8 b2 0e 00 00       	callq  3b00 <sha256_update>
    2c4e:	48 8b 4c 24 08       	mov    0x8(%rsp),%rcx
    2c53:	ba 00 10 00 00       	mov    $0x1000,%edx
    2c58:	be 01 00 00 00       	mov    $0x1,%esi
    2c5d:	48 89 df             	mov    %rbx,%rdi
    2c60:	e8 33 e9 ff ff       	callq  1598 <_init+0x40>
    2c65:	85 c0                	test   %eax,%eax
    2c67:	7f d7                	jg     2c40 <driver_initialize+0x70>
    2c69:	48 89 ef             	mov    %rbp,%rdi
    2c6c:	48 89 de             	mov    %rbx,%rsi
    2c6f:	4c 8d a4 24 d0 00 00 	lea    0xd0(%rsp),%r12
    2c76:	00 
    2c77:	e8 14 0f 00 00       	callq  3b90 <sha256_final>
    2c7c:	48 8d 84 24 90 00 00 	lea    0x90(%rsp),%rax
    2c83:	00 
    2c84:	48 8d 2d b6 1e 00 00 	lea    0x1eb6(%rip),%rbp        # 4b41 <_IO_stdin_used+0xc81>
    2c8b:	49 89 de             	mov    %rbx,%r14
    2c8e:	48 89 44 24 10       	mov    %rax,0x10(%rsp)
    2c93:	49 89 c7             	mov    %rax,%r15
    2c96:	66 2e 0f 1f 84 00 00 	nopw   %cs:0x0(%rax,%rax,1)
    2c9d:	00 00 00 
    2ca0:	45 0f b6 06          	movzbl (%r14),%r8d
    2ca4:	4c 89 ff             	mov    %r15,%rdi
    2ca7:	31 c0                	xor    %eax,%eax
    2ca9:	48 89 e9             	mov    %rbp,%rcx
    2cac:	48 c7 c2 ff ff ff ff 	mov    $0xffffffffffffffff,%rdx
    2cb3:	be 01 00 00 00       	mov    $0x1,%esi
    2cb8:	49 83 c7 02          	add    $0x2,%r15
    2cbc:	49 83 c6 01          	add    $0x1,%r14
    2cc0:	e8 03 ea ff ff       	callq  16c8 <_init+0x170>
    2cc5:	4d 39 e7             	cmp    %r12,%r15
    2cc8:	75 d6                	jne    2ca0 <driver_initialize+0xd0>
    2cca:	48 8b 7c 24 08       	mov    0x8(%rsp),%rdi
    2ccf:	c6 84 24 d0 00 00 00 	movb   $0x0,0xd0(%rsp)
    2cd6:	00 
    2cd7:	e8 cc e8 ff ff       	callq  15a8 <_init+0x50>
    2cdc:	44 8b 05 2d 33 20 00 	mov    0x20332d(%rip),%r8d        # 206010 <bomb_id>
    2ce3:	4c 8b 4c 24 10       	mov    0x10(%rsp),%r9
    2ce8:	48 8d 0d d8 1d 00 00 	lea    0x1dd8(%rip),%rcx        # 4ac7 <_IO_stdin_used+0xc07>
    2cef:	ba 00 10 00 00       	mov    $0x1000,%edx
    2cf4:	be 01 00 00 00       	mov    $0x1,%esi
    2cf9:	48 89 df             	mov    %rbx,%rdi
    2cfc:	31 c0                	xor    %eax,%eax
    2cfe:	e8 c5 e9 ff ff       	callq  16c8 <_init+0x170>
    2d03:	49 89 d8             	mov    %rbx,%r8
    2d06:	41 8b 10             	mov    (%r8),%edx
    2d09:	49 83 c0 04          	add    $0x4,%r8
    2d0d:	8d 82 ff fe fe fe    	lea    -0x1010101(%rdx),%eax
    2d13:	f7 d2                	not    %edx
    2d15:	21 d0                	and    %edx,%eax
    2d17:	25 80 80 80 80       	and    $0x80808080,%eax
    2d1c:	74 e8                	je     2d06 <driver_initialize+0x136>
    2d1e:	89 c2                	mov    %eax,%edx
    2d20:	4c 8b 7c 24 10       	mov    0x10(%rsp),%r15
    2d25:	be 01 00 00 00       	mov    $0x1,%esi
    2d2a:	c1 ea 10             	shr    $0x10,%edx
    2d2d:	a9 80 80 00 00       	test   $0x8080,%eax
    2d32:	0f 44 c2             	cmove  %edx,%eax
    2d35:	49 8d 50 02          	lea    0x2(%r8),%rdx
    2d39:	89 c1                	mov    %eax,%ecx
    2d3b:	4c 89 ff             	mov    %r15,%rdi
    2d3e:	4c 0f 44 c2          	cmove  %rdx,%r8
    2d42:	00 c1                	add    %al,%cl
    2d44:	48 8d 0d 8f 1d 00 00 	lea    0x1d8f(%rip),%rcx        # 4ada <_IO_stdin_used+0xc1a>
    2d4b:	49 83 d8 03          	sbb    $0x3,%r8
    2d4f:	ba 41 00 00 00       	mov    $0x41,%edx
    2d54:	31 c0                	xor    %eax,%eax
    2d56:	49 29 d8             	sub    %rbx,%r8
    2d59:	e8 6a e9 ff ff       	callq  16c8 <_init+0x170>
    2d5e:	48 8d 35 8b 1d 00 00 	lea    0x1d8b(%rip),%rsi        # 4af0 <_IO_stdin_used+0xc30>
    2d65:	ba 17 00 00 00       	mov    $0x17,%edx
    2d6a:	44 89 ef             	mov    %r13d,%edi
    2d6d:	e8 2e e8 ff ff       	callq  15a0 <_init+0x48>
    2d72:	48 8d 35 8f 1d 00 00 	lea    0x1d8f(%rip),%rsi        # 4b08 <_IO_stdin_used+0xc48>
    2d79:	ba 06 00 00 00       	mov    $0x6,%edx
    2d7e:	44 89 ef             	mov    %r13d,%edi
    2d81:	e8 1a e8 ff ff       	callq  15a0 <_init+0x48>
    2d86:	4c 8b 74 24 18       	mov    0x18(%rsp),%r14
    2d8b:	4c 89 f7             	mov    %r14,%rdi
    2d8e:	e8 1d e8 ff ff       	callq  15b0 <_init+0x58>
    2d93:	4c 89 f6             	mov    %r14,%rsi
    2d96:	48 89 c2             	mov    %rax,%rdx
    2d99:	44 89 ef             	mov    %r13d,%edi
    2d9c:	e8 ff e7 ff ff       	callq  15a0 <_init+0x48>
    2da1:	48 8d 35 88 1b 00 00 	lea    0x1b88(%rip),%rsi        # 4930 <_IO_stdin_used+0xa70>
    2da8:	ba 33 00 00 00       	mov    $0x33,%edx
    2dad:	44 89 ef             	mov    %r13d,%edi
    2db0:	e8 eb e7 ff ff       	callq  15a0 <_init+0x48>
    2db5:	4c 89 fa             	mov    %r15,%rdx
    2db8:	8b 0a                	mov    (%rdx),%ecx
    2dba:	48 83 c2 04          	add    $0x4,%rdx
    2dbe:	8d 81 ff fe fe fe    	lea    -0x1010101(%rcx),%eax
    2dc4:	f7 d1                	not    %ecx
    2dc6:	21 c8                	and    %ecx,%eax
    2dc8:	25 80 80 80 80       	and    $0x80808080,%eax
    2dcd:	74 e9                	je     2db8 <driver_initialize+0x1e8>
    2dcf:	89 c1                	mov    %eax,%ecx
    2dd1:	44 89 ef             	mov    %r13d,%edi
    2dd4:	c1 e9 10             	shr    $0x10,%ecx
    2dd7:	a9 80 80 00 00       	test   $0x8080,%eax
    2ddc:	0f 44 c1             	cmove  %ecx,%eax
    2ddf:	48 8d 4a 02          	lea    0x2(%rdx),%rcx
    2de3:	48 0f 44 d1          	cmove  %rcx,%rdx
    2de7:	89 c1                	mov    %eax,%ecx
    2de9:	00 c1                	add    %al,%cl
    2deb:	48 8b 44 24 10       	mov    0x10(%rsp),%rax
    2df0:	48 83 da 03          	sbb    $0x3,%rdx
    2df4:	48 29 c2             	sub    %rax,%rdx
    2df7:	48 89 c6             	mov    %rax,%rsi
    2dfa:	e8 a1 e7 ff ff       	callq  15a0 <_init+0x48>
    2dff:	48 8d 35 09 1d 00 00 	lea    0x1d09(%rip),%rsi        # 4b0f <_IO_stdin_used+0xc4f>
    2e06:	ba 1a 00 00 00       	mov    $0x1a,%edx
    2e0b:	44 89 ef             	mov    %r13d,%edi
    2e0e:	e8 8d e7 ff ff       	callq  15a0 <_init+0x48>
    2e13:	48 89 da             	mov    %rbx,%rdx
    2e16:	8b 0a                	mov    (%rdx),%ecx
    2e18:	48 83 c2 04          	add    $0x4,%rdx
    2e1c:	8d 81 ff fe fe fe    	lea    -0x1010101(%rcx),%eax
    2e22:	f7 d1                	not    %ecx
    2e24:	21 c8                	and    %ecx,%eax
    2e26:	25 80 80 80 80       	and    $0x80808080,%eax
    2e2b:	74 e9                	je     2e16 <driver_initialize+0x246>
    2e2d:	89 c1                	mov    %eax,%ecx
    2e2f:	48 89 de             	mov    %rbx,%rsi
    2e32:	44 89 ef             	mov    %r13d,%edi
    2e35:	c1 e9 10             	shr    $0x10,%ecx
    2e38:	a9 80 80 00 00       	test   $0x8080,%eax
    2e3d:	48 89 dd             	mov    %rbx,%rbp
    2e40:	0f 44 c1             	cmove  %ecx,%eax
    2e43:	48 8d 4a 02          	lea    0x2(%rdx),%rcx
    2e47:	4c 8d 35 d7 1c 00 00 	lea    0x1cd7(%rip),%r14        # 4b25 <_IO_stdin_used+0xc65>
    2e4e:	48 0f 44 d1          	cmove  %rcx,%rdx
    2e52:	89 c1                	mov    %eax,%ecx
    2e54:	00 c1                	add    %al,%cl
    2e56:	48 83 da 03          	sbb    $0x3,%rdx
    2e5a:	48 29 da             	sub    %rbx,%rdx
    2e5d:	e8 3e e7 ff ff       	callq  15a0 <_init+0x48>
    2e62:	eb 15                	jmp    2e79 <driver_initialize+0x2a9>
    2e64:	0f 1f 40 00          	nopl   0x0(%rax)
    2e68:	4c 89 e0             	mov    %r12,%rax
    2e6b:	4c 89 e5             	mov    %r12,%rbp
    2e6e:	48 29 d8             	sub    %rbx,%rax
    2e71:	48 3d fe 0f 00 00    	cmp    $0xffe,%rax
    2e77:	7f 24                	jg     2e9d <driver_initialize+0x2cd>
    2e79:	48 89 ee             	mov    %rbp,%rsi
    2e7c:	44 89 ef             	mov    %r13d,%edi
    2e7f:	ba 01 00 00 00       	mov    $0x1,%edx
    2e84:	e8 57 e7 ff ff       	callq  15e0 <_init+0x88>
    2e89:	48 8d 75 fd          	lea    -0x3(%rbp),%rsi
    2e8d:	b9 04 00 00 00       	mov    $0x4,%ecx
    2e92:	4c 89 f7             	mov    %r14,%rdi
    2e95:	4c 8d 65 01          	lea    0x1(%rbp),%r12
    2e99:	f3 a6                	repz cmpsb %es:(%rdi),%ds:(%rsi)
    2e9b:	75 cb                	jne    2e68 <driver_initialize+0x298>
    2e9d:	be 20 00 00 00       	mov    $0x20,%esi
    2ea2:	48 89 df             	mov    %rbx,%rdi
    2ea5:	e8 16 e7 ff ff       	callq  15c0 <_init+0x68>
    2eaa:	48 85 c0             	test   %rax,%rax
    2ead:	0f 84 9d 00 00 00    	je     2f50 <driver_initialize+0x380>
    2eb3:	0f be 50 01          	movsbl 0x1(%rax),%edx
    2eb7:	0f be 48 02          	movsbl 0x2(%rax),%ecx
    2ebb:	0f be 40 03          	movsbl 0x3(%rax),%eax
    2ebf:	83 ea 30             	sub    $0x30,%edx
    2ec2:	8d 8c 89 10 ff ff ff 	lea    -0xf0(%rcx,%rcx,4),%ecx
    2ec9:	6b d2 64             	imul   $0x64,%edx,%edx
    2ecc:	8d 14 4a             	lea    (%rdx,%rcx,2),%edx
    2ecf:	8d 4c 02 d0          	lea    -0x30(%rdx,%rax,1),%ecx
    2ed3:	81 f9 c8 00 00 00    	cmp    $0xc8,%ecx
    2ed9:	0f 85 a1 00 00 00    	jne    2f80 <driver_initialize+0x3b0>
    2edf:	48 8d 35 44 1c 00 00 	lea    0x1c44(%rip),%rsi        # 4b2a <_IO_stdin_used+0xc6a>
    2ee6:	48 89 df             	mov    %rbx,%rdi
    2ee9:	e8 ba e7 ff ff       	callq  16a8 <_init+0x150>
    2eee:	48 85 c0             	test   %rax,%rax
    2ef1:	0f 84 cc 00 00 00    	je     2fc3 <driver_initialize+0x3f3>
    2ef7:	48 8d 68 10          	lea    0x10(%rax),%rbp
    2efb:	48 8d 35 39 1c 00 00 	lea    0x1c39(%rip),%rsi        # 4b3b <_IO_stdin_used+0xc7b>
    2f02:	48 89 ef             	mov    %rbp,%rdi
    2f05:	e8 1e e7 ff ff       	callq  1628 <_init+0xd0>
    2f0a:	48 89 ef             	mov    %rbp,%rdi
    2f0d:	ba 0a 00 00 00       	mov    $0xa,%edx
    2f12:	31 f6                	xor    %esi,%esi
    2f14:	c6 00 00             	movb   $0x0,(%rax)
    2f17:	e8 ec e6 ff ff       	callq  1608 <_init+0xb0>
    2f1c:	b9 00 10 00 00       	mov    $0x1000,%ecx
    2f21:	48 63 d0             	movslq %eax,%rdx
    2f24:	48 89 de             	mov    %rbx,%rsi
    2f27:	44 89 ef             	mov    %r13d,%edi
    2f2a:	48 63 e8             	movslq %eax,%rbp
    2f2d:	e8 56 e6 ff ff       	callq  1588 <_init+0x30>
    2f32:	c6 84 2c e0 00 00 00 	movb   $0x0,0xe0(%rsp,%rbp,1)
    2f39:	00 
    2f3a:	80 bc 24 e0 00 00 00 	cmpb   $0x59,0xe0(%rsp)
    2f41:	59 
    2f42:	74 5a                	je     2f9e <driver_initialize+0x3ce>
    2f44:	48 8d 3d 45 1a 00 00 	lea    0x1a45(%rip),%rdi        # 4990 <_IO_stdin_used+0xad0>
    2f4b:	e8 40 e6 ff ff       	callq  1590 <_init+0x38>
    2f50:	31 c0                	xor    %eax,%eax
    2f52:	48 8b 9c 24 e8 10 00 	mov    0x10e8(%rsp),%rbx
    2f59:	00 
    2f5a:	64 48 33 1c 25 28 00 	xor    %fs:0x28,%rbx
    2f61:	00 00 
    2f63:	75 72                	jne    2fd7 <driver_initialize+0x407>
    2f65:	48 81 c4 f8 10 00 00 	add    $0x10f8,%rsp
    2f6c:	5b                   	pop    %rbx
    2f6d:	5d                   	pop    %rbp
    2f6e:	41 5c                	pop    %r12
    2f70:	41 5d                	pop    %r13
    2f72:	41 5e                	pop    %r14
    2f74:	41 5f                	pop    %r15
    2f76:	c3                   	retq   
    2f77:	66 0f 1f 84 00 00 00 	nopw   0x0(%rax,%rax,1)
    2f7e:	00 00 
    2f80:	48 8b 3d d9 30 20 00 	mov    0x2030d9(%rip),%rdi        # 206060 <stderr@@GLIBC_2.2.5>
    2f87:	48 8d 15 da 19 00 00 	lea    0x19da(%rip),%rdx        # 4968 <_IO_stdin_used+0xaa8>
    2f8e:	be 01 00 00 00       	mov    $0x1,%esi
    2f93:	31 c0                	xor    %eax,%eax
    2f95:	e8 e6 e6 ff ff       	callq  1680 <_init+0x128>
    2f9a:	31 c0                	xor    %eax,%eax
    2f9c:	eb b4                	jmp    2f52 <driver_initialize+0x382>
    2f9e:	80 bc 24 e1 00 00 00 	cmpb   $0x45,0xe1(%rsp)
    2fa5:	45 
    2fa6:	75 9c                	jne    2f44 <driver_initialize+0x374>
    2fa8:	80 bc 24 e2 00 00 00 	cmpb   $0x53,0xe2(%rsp)
    2faf:	53 
    2fb0:	75 92                	jne    2f44 <driver_initialize+0x374>
    2fb2:	80 bc 24 e3 00 00 00 	cmpb   $0x0,0xe3(%rsp)
    2fb9:	00 
    2fba:	75 88                	jne    2f44 <driver_initialize+0x374>
    2fbc:	b8 01 00 00 00       	mov    $0x1,%eax
    2fc1:	eb 8f                	jmp    2f52 <driver_initialize+0x382>
    2fc3:	31 d2                	xor    %edx,%edx
    2fc5:	48 89 de             	mov    %rbx,%rsi
    2fc8:	44 89 ef             	mov    %r13d,%edi
    2fcb:	e8 10 e6 ff ff       	callq  15e0 <_init+0x88>
    2fd0:	31 ed                	xor    %ebp,%ebp
    2fd2:	e9 5b ff ff ff       	jmpq   2f32 <driver_initialize+0x362>
    2fd7:	e8 dc e5 ff ff       	callq  15b8 <_init+0x60>
    2fdc:	0f 1f 40 00          	nopl   0x0(%rax)

0000000000002fe0 <driver_post>:
    2fe0:	55                   	push   %rbp
    2fe1:	48 89 e5             	mov    %rsp,%rbp
    2fe4:	41 57                	push   %r15
    2fe6:	41 56                	push   %r14
    2fe8:	41 55                	push   %r13
    2fea:	41 54                	push   %r12
    2fec:	4d 89 c6             	mov    %r8,%r14
    2fef:	53                   	push   %rbx
    2ff0:	48 89 d3             	mov    %rdx,%rbx
    2ff3:	48 81 ec 48 03 00 00 	sub    $0x348,%rsp
    2ffa:	48 89 bd a0 fc ff ff 	mov    %rdi,-0x360(%rbp)
    3001:	48 89 8d a8 fc ff ff 	mov    %rcx,-0x358(%rbp)
    3008:	64 48 8b 04 25 28 00 	mov    %fs:0x28,%rax
    300f:	00 00 
    3011:	48 89 45 c8          	mov    %rax,-0x38(%rbp)
    3015:	31 c0                	xor    %eax,%eax
    3017:	e8 84 fa ff ff       	callq  2aa0 <driver_get_socket>
    301c:	83 f8 ff             	cmp    $0xffffffff,%eax
    301f:	0f 84 7b 01 00 00    	je     31a0 <driver_post+0x1c0>
    3025:	48 89 df             	mov    %rbx,%rdi
    3028:	41 89 c5             	mov    %eax,%r13d
    302b:	e8 80 e5 ff ff       	callq  15b0 <_init+0x58>
    3030:	48 8d 3c 40          	lea    (%rax,%rax,2),%rdi
    3034:	49 89 c7             	mov    %rax,%r15
    3037:	e8 d4 e5 ff ff       	callq  1610 <_init+0xb8>
    303c:	4c 89 f7             	mov    %r14,%rdi
    303f:	49 89 c4             	mov    %rax,%r12
    3042:	48 89 85 98 fc ff ff 	mov    %rax,-0x368(%rbp)
    3049:	e8 62 e5 ff ff       	callq  15b0 <_init+0x58>
    304e:	48 8d 3c 40          	lea    (%rax,%rax,2),%rdi
    3052:	e8 b9 e5 ff ff       	callq  1610 <_init+0xb8>
    3057:	45 85 ff             	test   %r15d,%r15d
    305a:	48 89 85 b0 fc ff ff 	mov    %rax,-0x350(%rbp)
    3061:	0f 84 03 05 00 00    	je     356a <driver_post+0x58a>
    3067:	41 8d 47 ff          	lea    -0x1(%r15),%eax
    306b:	44 89 ad b8 fc ff ff 	mov    %r13d,-0x348(%rbp)
    3072:	4c 89 b5 90 fc ff ff 	mov    %r14,-0x370(%rbp)
    3079:	49 bf 19 00 00 00 00 	movabs $0x20000000000019,%r15
    3080:	00 20 00 
    3083:	4c 8d 5c 03 01       	lea    0x1(%rbx,%rax,1),%r11
    3088:	4c 89 e0             	mov    %r12,%rax
    308b:	4c 8d a5 c0 fd ff ff 	lea    -0x240(%rbp),%r12
    3092:	49 89 c5             	mov    %rax,%r13
    3095:	4d 89 de             	mov    %r11,%r14
    3098:	eb 38                	jmp    30d2 <driver_post+0xf2>
    309a:	66 0f 1f 44 00 00    	nopw   0x0(%rax,%rax,1)
    30a0:	e8 13 e6 ff ff       	callq  16b8 <_init+0x160>
    30a5:	48 0f be 95 bc fc ff 	movsbq -0x344(%rbp),%rdx
    30ac:	ff 
    30ad:	48 8b 08             	mov    (%rax),%rcx
    30b0:	f6 04 51 08          	testb  $0x8,(%rcx,%rdx,2)
    30b4:	0f 84 0e 01 00 00    	je     31c8 <driver_post+0x1e8>
    30ba:	0f b6 85 bc fc ff ff 	movzbl -0x344(%rbp),%eax
    30c1:	49 83 c5 01          	add    $0x1,%r13
    30c5:	41 88 45 ff          	mov    %al,-0x1(%r13)
    30c9:	48 83 c3 01          	add    $0x1,%rbx
    30cd:	4c 39 f3             	cmp    %r14,%rbx
    30d0:	74 1e                	je     30f0 <driver_post+0x110>
    30d2:	0f b6 03             	movzbl (%rbx),%eax
    30d5:	88 85 bc fc ff ff    	mov    %al,-0x344(%rbp)
    30db:	83 e8 2a             	sub    $0x2a,%eax
    30de:	3c 35                	cmp    $0x35,%al
    30e0:	77 be                	ja     30a0 <driver_post+0xc0>
    30e2:	49 0f a3 c7          	bt     %rax,%r15
    30e6:	73 b8                	jae    30a0 <driver_post+0xc0>
    30e8:	eb d0                	jmp    30ba <driver_post+0xda>
    30ea:	66 0f 1f 44 00 00    	nopw   0x0(%rax,%rax,1)
    30f0:	4c 89 e8             	mov    %r13,%rax
    30f3:	4c 8b b5 90 fc ff ff 	mov    -0x370(%rbp),%r14
    30fa:	44 8b ad b8 fc ff ff 	mov    -0x348(%rbp),%r13d
    3101:	c6 00 00             	movb   $0x0,(%rax)
    3104:	4c 89 f7             	mov    %r14,%rdi
    3107:	e8 a4 e4 ff ff       	callq  15b0 <_init+0x58>
    310c:	85 c0                	test   %eax,%eax
    310e:	0f 84 4a 04 00 00    	je     355e <driver_post+0x57e>
    3114:	83 e8 01             	sub    $0x1,%eax
    3117:	44 89 ad bc fc ff ff 	mov    %r13d,-0x344(%rbp)
    311e:	48 8b 9d b0 fc ff ff 	mov    -0x350(%rbp),%rbx
    3125:	4d 8d 7c 06 01       	lea    0x1(%r14,%rax,1),%r15
    312a:	4d 89 fd             	mov    %r15,%r13
    312d:	eb 2b                	jmp    315a <driver_post+0x17a>
    312f:	90                   	nop
    3130:	e8 83 e5 ff ff       	callq  16b8 <_init+0x160>
    3135:	48 8b 08             	mov    (%rax),%rcx
    3138:	49 0f be d7          	movsbq %r15b,%rdx
    313c:	f6 04 51 08          	testb  $0x8,(%rcx,%rdx,2)
    3140:	0f 84 d2 03 00 00    	je     3518 <driver_post+0x538>
    3146:	44 88 3b             	mov    %r15b,(%rbx)
    3149:	48 83 c3 01          	add    $0x1,%rbx
    314d:	49 83 c6 01          	add    $0x1,%r14
    3151:	4d 39 ee             	cmp    %r13,%r14
    3154:	0f 84 be 00 00 00    	je     3218 <driver_post+0x238>
    315a:	45 0f b6 3e          	movzbl (%r14),%r15d
    315e:	41 8d 47 d6          	lea    -0x2a(%r15),%eax
    3162:	3c 35                	cmp    $0x35,%al
    3164:	77 ca                	ja     3130 <driver_post+0x150>
    3166:	48 b9 19 00 00 00 00 	movabs $0x20000000000019,%rcx
    316d:	00 20 00 
    3170:	48 0f a3 c1          	bt     %rax,%rcx
    3174:	73 ba                	jae    3130 <driver_post+0x150>
    3176:	eb ce                	jmp    3146 <driver_post+0x166>
    3178:	0f 1f 84 00 00 00 00 	nopl   0x0(%rax,%rax,1)
    317f:	00 
    3180:	48 8b 3d d9 2e 20 00 	mov    0x202ed9(%rip),%rdi        # 206060 <stderr@@GLIBC_2.2.5>
    3187:	48 8d 15 da 17 00 00 	lea    0x17da(%rip),%rdx        # 4968 <_IO_stdin_used+0xaa8>
    318e:	be 01 00 00 00       	mov    $0x1,%esi
    3193:	31 c0                	xor    %eax,%eax
    3195:	e8 e6 e4 ff ff       	callq  1680 <_init+0x128>
    319a:	66 0f 1f 44 00 00    	nopw   0x0(%rax,%rax,1)
    31a0:	31 c0                	xor    %eax,%eax
    31a2:	48 8b 7d c8          	mov    -0x38(%rbp),%rdi
    31a6:	64 48 33 3c 25 28 00 	xor    %fs:0x28,%rdi
    31ad:	00 00 
    31af:	0f 85 dc 03 00 00    	jne    3591 <driver_post+0x5b1>
    31b5:	48 8d 65 d8          	lea    -0x28(%rbp),%rsp
    31b9:	5b                   	pop    %rbx
    31ba:	41 5c                	pop    %r12
    31bc:	41 5d                	pop    %r13
    31be:	41 5e                	pop    %r14
    31c0:	41 5f                	pop    %r15
    31c2:	5d                   	pop    %rbp
    31c3:	c3                   	retq   
    31c4:	0f 1f 40 00          	nopl   0x0(%rax)
    31c8:	44 0f be 85 bc fc ff 	movsbl -0x344(%rbp),%r8d
    31cf:	ff 
    31d0:	48 8d 0d 68 19 00 00 	lea    0x1968(%rip),%rcx        # 4b3f <_IO_stdin_used+0xc7f>
    31d7:	ba 08 00 00 00       	mov    $0x8,%edx
    31dc:	be 01 00 00 00       	mov    $0x1,%esi
    31e1:	4c 89 e7             	mov    %r12,%rdi
    31e4:	31 c0                	xor    %eax,%eax
    31e6:	49 83 c5 03          	add    $0x3,%r13
    31ea:	e8 d9 e4 ff ff       	callq  16c8 <_init+0x170>
    31ef:	0f b6 85 c0 fd ff ff 	movzbl -0x240(%rbp),%eax
    31f6:	41 88 45 fd          	mov    %al,-0x3(%r13)
    31fa:	0f b6 85 c1 fd ff ff 	movzbl -0x23f(%rbp),%eax
    3201:	41 88 45 fe          	mov    %al,-0x2(%r13)
    3205:	0f b6 85 c2 fd ff ff 	movzbl -0x23e(%rbp),%eax
    320c:	41 88 45 ff          	mov    %al,-0x1(%r13)
    3210:	e9 b4 fe ff ff       	jmpq   30c9 <driver_post+0xe9>
    3215:	0f 1f 00             	nopl   (%rax)
    3218:	44 8b ad bc fc ff ff 	mov    -0x344(%rbp),%r13d
    321f:	4c 8b 85 98 fc ff ff 	mov    -0x368(%rbp),%r8
    3226:	4c 8b 8d a8 fc ff ff 	mov    -0x358(%rbp),%r9
    322d:	48 83 ec 08          	sub    $0x8,%rsp
    3231:	c6 03 00             	movb   $0x0,(%rbx)
    3234:	48 8d 0d a5 17 00 00 	lea    0x17a5(%rip),%rcx        # 49e0 <_IO_stdin_used+0xb20>
    323b:	ff b5 b0 fc ff ff    	pushq  -0x350(%rbp)
    3241:	ba 00 02 00 00       	mov    $0x200,%edx
    3246:	be 01 00 00 00       	mov    $0x1,%esi
    324b:	4c 89 e7             	mov    %r12,%rdi
    324e:	31 c0                	xor    %eax,%eax
    3250:	e8 73 e4 ff ff       	callq  16c8 <_init+0x170>
    3255:	4d 89 e0             	mov    %r12,%r8
    3258:	41 8b 10             	mov    (%r8),%edx
    325b:	49 83 c0 04          	add    $0x4,%r8
    325f:	8d 82 ff fe fe fe    	lea    -0x1010101(%rdx),%eax
    3265:	f7 d2                	not    %edx
    3267:	21 d0                	and    %edx,%eax
    3269:	25 80 80 80 80       	and    $0x80808080,%eax
    326e:	74 e8                	je     3258 <driver_post+0x278>
    3270:	89 c2                	mov    %eax,%edx
    3272:	48 8d 9d c0 fc ff ff 	lea    -0x340(%rbp),%rbx
    3279:	48 8d 0d 5a 18 00 00 	lea    0x185a(%rip),%rcx        # 4ada <_IO_stdin_used+0xc1a>
    3280:	c1 ea 10             	shr    $0x10,%edx
    3283:	a9 80 80 00 00       	test   $0x8080,%eax
    3288:	be 01 00 00 00       	mov    $0x1,%esi
    328d:	0f 44 c2             	cmove  %edx,%eax
    3290:	49 8d 50 02          	lea    0x2(%r8),%rdx
    3294:	89 c7                	mov    %eax,%edi
    3296:	4c 0f 44 c2          	cmove  %rdx,%r8
    329a:	40 00 c7             	add    %al,%dil
    329d:	ba 00 01 00 00       	mov    $0x100,%edx
    32a2:	49 83 d8 03          	sbb    $0x3,%r8
    32a6:	48 89 df             	mov    %rbx,%rdi
    32a9:	31 c0                	xor    %eax,%eax
    32ab:	4d 29 e0             	sub    %r12,%r8
    32ae:	e8 15 e4 ff ff       	callq  16c8 <_init+0x170>
    32b3:	48 8d 35 8c 18 00 00 	lea    0x188c(%rip),%rsi        # 4b46 <_IO_stdin_used+0xc86>
    32ba:	ba 1b 00 00 00       	mov    $0x1b,%edx
    32bf:	44 89 ef             	mov    %r13d,%edi
    32c2:	e8 d9 e2 ff ff       	callq  15a0 <_init+0x48>
    32c7:	48 8d 35 3a 18 00 00 	lea    0x183a(%rip),%rsi        # 4b08 <_IO_stdin_used+0xc48>
    32ce:	ba 06 00 00 00       	mov    $0x6,%edx
    32d3:	44 89 ef             	mov    %r13d,%edi
    32d6:	e8 c5 e2 ff ff       	callq  15a0 <_init+0x48>
    32db:	4c 8b bd a0 fc ff ff 	mov    -0x360(%rbp),%r15
    32e2:	4c 89 ff             	mov    %r15,%rdi
    32e5:	e8 c6 e2 ff ff       	callq  15b0 <_init+0x58>
    32ea:	4c 89 fe             	mov    %r15,%rsi
    32ed:	48 89 c2             	mov    %rax,%rdx
    32f0:	44 89 ef             	mov    %r13d,%edi
    32f3:	e8 a8 e2 ff ff       	callq  15a0 <_init+0x48>
    32f8:	48 8d 35 09 17 00 00 	lea    0x1709(%rip),%rsi        # 4a08 <_IO_stdin_used+0xb48>
    32ff:	ba 46 00 00 00       	mov    $0x46,%edx
    3304:	44 89 ef             	mov    %r13d,%edi
    3307:	e8 94 e2 ff ff       	callq  15a0 <_init+0x48>
    330c:	48 89 da             	mov    %rbx,%rdx
    330f:	8b 0a                	mov    (%rdx),%ecx
    3311:	48 83 c2 04          	add    $0x4,%rdx
    3315:	8d 81 ff fe fe fe    	lea    -0x1010101(%rcx),%eax
    331b:	f7 d1                	not    %ecx
    331d:	21 c8                	and    %ecx,%eax
    331f:	25 80 80 80 80       	and    $0x80808080,%eax
    3324:	74 e9                	je     330f <driver_post+0x32f>
    3326:	89 c1                	mov    %eax,%ecx
    3328:	48 89 de             	mov    %rbx,%rsi
    332b:	c1 e9 10             	shr    $0x10,%ecx
    332e:	a9 80 80 00 00       	test   $0x8080,%eax
    3333:	0f 44 c1             	cmove  %ecx,%eax
    3336:	48 8d 4a 02          	lea    0x2(%rdx),%rcx
    333a:	89 c7                	mov    %eax,%edi
    333c:	48 0f 44 d1          	cmove  %rcx,%rdx
    3340:	40 00 c7             	add    %al,%dil
    3343:	44 89 ef             	mov    %r13d,%edi
    3346:	48 83 da 03          	sbb    $0x3,%rdx
    334a:	48 29 da             	sub    %rbx,%rdx
    334d:	e8 4e e2 ff ff       	callq  15a0 <_init+0x48>
    3352:	48 8d 35 b6 17 00 00 	lea    0x17b6(%rip),%rsi        # 4b0f <_IO_stdin_used+0xc4f>
    3359:	ba 1a 00 00 00       	mov    $0x1a,%edx
    335e:	44 89 ef             	mov    %r13d,%edi
    3361:	e8 3a e2 ff ff       	callq  15a0 <_init+0x48>
    3366:	4c 89 e2             	mov    %r12,%rdx
    3369:	8b 0a                	mov    (%rdx),%ecx
    336b:	48 83 c2 04          	add    $0x4,%rdx
    336f:	8d 81 ff fe fe fe    	lea    -0x1010101(%rcx),%eax
    3375:	f7 d1                	not    %ecx
    3377:	21 c8                	and    %ecx,%eax
    3379:	25 80 80 80 80       	and    $0x80808080,%eax
    337e:	74 e9                	je     3369 <driver_post+0x389>
    3380:	89 c1                	mov    %eax,%ecx
    3382:	4c 89 e6             	mov    %r12,%rsi
    3385:	4d 89 e6             	mov    %r12,%r14
    3388:	c1 e9 10             	shr    $0x10,%ecx
    338b:	a9 80 80 00 00       	test   $0x8080,%eax
    3390:	0f 44 c1             	cmove  %ecx,%eax
    3393:	48 8d 4a 02          	lea    0x2(%rdx),%rcx
    3397:	89 c7                	mov    %eax,%edi
    3399:	48 0f 44 d1          	cmove  %rcx,%rdx
    339d:	40 00 c7             	add    %al,%dil
    33a0:	44 89 ef             	mov    %r13d,%edi
    33a3:	48 83 da 03          	sbb    $0x3,%rdx
    33a7:	4c 29 e2             	sub    %r12,%rdx
    33aa:	e8 f1 e1 ff ff       	callq  15a0 <_init+0x48>
    33af:	58                   	pop    %rax
    33b0:	5a                   	pop    %rdx
    33b1:	eb 16                	jmp    33c9 <driver_post+0x3e9>
    33b3:	0f 1f 44 00 00       	nopl   0x0(%rax,%rax,1)
    33b8:	48 89 d8             	mov    %rbx,%rax
    33bb:	49 89 de             	mov    %rbx,%r14
    33be:	4c 29 e0             	sub    %r12,%rax
    33c1:	48 3d fe 01 00 00    	cmp    $0x1fe,%rax
    33c7:	7f 28                	jg     33f1 <driver_post+0x411>
    33c9:	4c 89 f6             	mov    %r14,%rsi
    33cc:	44 89 ef             	mov    %r13d,%edi
    33cf:	ba 01 00 00 00       	mov    $0x1,%edx
    33d4:	e8 07 e2 ff ff       	callq  15e0 <_init+0x88>
    33d9:	49 8d 76 fd          	lea    -0x3(%r14),%rsi
    33dd:	48 8d 3d 41 17 00 00 	lea    0x1741(%rip),%rdi        # 4b25 <_IO_stdin_used+0xc65>
    33e4:	b9 04 00 00 00       	mov    $0x4,%ecx
    33e9:	49 8d 5e 01          	lea    0x1(%r14),%rbx
    33ed:	f3 a6                	repz cmpsb %es:(%rdi),%ds:(%rsi)
    33ef:	75 c7                	jne    33b8 <driver_post+0x3d8>
    33f1:	be 20 00 00 00       	mov    $0x20,%esi
    33f6:	4c 89 e7             	mov    %r12,%rdi
    33f9:	e8 c2 e1 ff ff       	callq  15c0 <_init+0x68>
    33fe:	48 85 c0             	test   %rax,%rax
    3401:	0f 84 99 fd ff ff    	je     31a0 <driver_post+0x1c0>
    3407:	0f be 50 01          	movsbl 0x1(%rax),%edx
    340b:	0f be 48 02          	movsbl 0x2(%rax),%ecx
    340f:	0f be 40 03          	movsbl 0x3(%rax),%eax
    3413:	83 ea 30             	sub    $0x30,%edx
    3416:	8d 8c 89 10 ff ff ff 	lea    -0xf0(%rcx,%rcx,4),%ecx
    341d:	6b d2 64             	imul   $0x64,%edx,%edx
    3420:	8d 14 4a             	lea    (%rdx,%rcx,2),%edx
    3423:	8d 4c 02 d0          	lea    -0x30(%rdx,%rax,1),%ecx
    3427:	81 f9 93 01 00 00    	cmp    $0x193,%ecx
    342d:	0f 84 91 01 00 00    	je     35c4 <driver_post+0x5e4>
    3433:	81 f9 c8 00 00 00    	cmp    $0xc8,%ecx
    3439:	0f 85 41 fd ff ff    	jne    3180 <driver_post+0x1a0>
    343f:	48 8d 35 e4 16 00 00 	lea    0x16e4(%rip),%rsi        # 4b2a <_IO_stdin_used+0xc6a>
    3446:	4c 89 e7             	mov    %r12,%rdi
    3449:	e8 5a e2 ff ff       	callq  16a8 <_init+0x150>
    344e:	48 85 c0             	test   %rax,%rax
    3451:	0f 84 26 01 00 00    	je     357d <driver_post+0x59d>
    3457:	48 8d 58 10          	lea    0x10(%rax),%rbx
    345b:	48 8d 35 d9 16 00 00 	lea    0x16d9(%rip),%rsi        # 4b3b <_IO_stdin_used+0xc7b>
    3462:	48 89 df             	mov    %rbx,%rdi
    3465:	e8 be e1 ff ff       	callq  1628 <_init+0xd0>
    346a:	48 89 df             	mov    %rbx,%rdi
    346d:	ba 0a 00 00 00       	mov    $0xa,%edx
    3472:	31 f6                	xor    %esi,%esi
    3474:	c6 00 00             	movb   $0x0,(%rax)
    3477:	e8 8c e1 ff ff       	callq  1608 <_init+0xb0>
    347c:	b9 00 02 00 00       	mov    $0x200,%ecx
    3481:	48 63 d0             	movslq %eax,%rdx
    3484:	4c 89 e6             	mov    %r12,%rsi
    3487:	44 89 ef             	mov    %r13d,%edi
    348a:	48 63 d8             	movslq %eax,%rbx
    348d:	e8 f6 e0 ff ff       	callq  1588 <_init+0x30>
    3492:	48 8b bd 98 fc ff ff 	mov    -0x368(%rbp),%rdi
    3499:	c6 84 1d c0 fd ff ff 	movb   $0x0,-0x240(%rbp,%rbx,1)
    34a0:	00 
    34a1:	e8 da e0 ff ff       	callq  1580 <_init+0x28>
    34a6:	48 8b bd b0 fc ff ff 	mov    -0x350(%rbp),%rdi
    34ad:	e8 ce e0 ff ff       	callq  1580 <_init+0x28>
    34b2:	48 8d 3d a9 16 00 00 	lea    0x16a9(%rip),%rdi        # 4b62 <_IO_stdin_used+0xca2>
    34b9:	b9 08 00 00 00       	mov    $0x8,%ecx
    34be:	4c 89 e6             	mov    %r12,%rsi
    34c1:	f3 a6                	repz cmpsb %es:(%rdi),%ds:(%rsi)
    34c3:	0f 84 cd 00 00 00    	je     3596 <driver_post+0x5b6>
    34c9:	0f b6 95 c0 fd ff ff 	movzbl -0x240(%rbp),%edx
    34d0:	b8 59 00 00 00       	mov    $0x59,%eax
    34d5:	29 d0                	sub    %edx,%eax
    34d7:	75 2f                	jne    3508 <driver_post+0x528>
    34d9:	0f b6 95 c1 fd ff ff 	movzbl -0x23f(%rbp),%edx
    34e0:	b8 45 00 00 00       	mov    $0x45,%eax
    34e5:	29 d0                	sub    %edx,%eax
    34e7:	75 1f                	jne    3508 <driver_post+0x528>
    34e9:	0f b6 95 c2 fd ff ff 	movzbl -0x23e(%rbp),%edx
    34f0:	b8 53 00 00 00       	mov    $0x53,%eax
    34f5:	29 d0                	sub    %edx,%eax
    34f7:	75 0f                	jne    3508 <driver_post+0x528>
    34f9:	0f b6 85 c3 fd ff ff 	movzbl -0x23d(%rbp),%eax
    3500:	f7 d8                	neg    %eax
    3502:	66 0f 1f 44 00 00    	nopw   0x0(%rax,%rax,1)
    3508:	85 c0                	test   %eax,%eax
    350a:	0f 94 c0             	sete   %al
    350d:	0f b6 c0             	movzbl %al,%eax
    3510:	e9 8d fc ff ff       	jmpq   31a2 <driver_post+0x1c2>
    3515:	0f 1f 00             	nopl   (%rax)
    3518:	48 8d 0d 20 16 00 00 	lea    0x1620(%rip),%rcx        # 4b3f <_IO_stdin_used+0xc7f>
    351f:	45 0f be c7          	movsbl %r15b,%r8d
    3523:	ba 08 00 00 00       	mov    $0x8,%edx
    3528:	be 01 00 00 00       	mov    $0x1,%esi
    352d:	4c 89 e7             	mov    %r12,%rdi
    3530:	31 c0                	xor    %eax,%eax
    3532:	e8 91 e1 ff ff       	callq  16c8 <_init+0x170>
    3537:	0f b6 85 c0 fd ff ff 	movzbl -0x240(%rbp),%eax
    353e:	48 83 c3 03          	add    $0x3,%rbx
    3542:	88 43 fd             	mov    %al,-0x3(%rbx)
    3545:	0f b6 85 c1 fd ff ff 	movzbl -0x23f(%rbp),%eax
    354c:	88 43 fe             	mov    %al,-0x2(%rbx)
    354f:	0f b6 85 c2 fd ff ff 	movzbl -0x23e(%rbp),%eax
    3556:	88 43 ff             	mov    %al,-0x1(%rbx)
    3559:	e9 ef fb ff ff       	jmpq   314d <driver_post+0x16d>
    355e:	48 8b 9d b0 fc ff ff 	mov    -0x350(%rbp),%rbx
    3565:	e9 b5 fc ff ff       	jmpq   321f <driver_post+0x23f>
    356a:	48 8b 85 98 fc ff ff 	mov    -0x368(%rbp),%rax
    3571:	4c 8d a5 c0 fd ff ff 	lea    -0x240(%rbp),%r12
    3578:	e9 84 fb ff ff       	jmpq   3101 <driver_post+0x121>
    357d:	31 d2                	xor    %edx,%edx
    357f:	4c 89 e6             	mov    %r12,%rsi
    3582:	44 89 ef             	mov    %r13d,%edi
    3585:	e8 56 e0 ff ff       	callq  15e0 <_init+0x88>
    358a:	31 db                	xor    %ebx,%ebx
    358c:	e9 01 ff ff ff       	jmpq   3492 <driver_post+0x4b2>
    3591:	e8 22 e0 ff ff       	callq  15b8 <_init+0x60>
    3596:	48 8d 3d cd 15 00 00 	lea    0x15cd(%rip),%rdi        # 4b6a <_IO_stdin_used+0xcaa>
    359d:	e8 ee df ff ff       	callq  1590 <_init+0x38>
    35a2:	48 8d 3d ca 15 00 00 	lea    0x15ca(%rip),%rdi        # 4b73 <_IO_stdin_used+0xcb3>
    35a9:	e8 e2 df ff ff       	callq  1590 <_init+0x38>
    35ae:	48 8d 3d c3 14 00 00 	lea    0x14c3(%rip),%rdi        # 4a78 <_IO_stdin_used+0xbb8>
    35b5:	e8 d6 df ff ff       	callq  1590 <_init+0x38>
    35ba:	bf 08 00 00 00       	mov    $0x8,%edi
    35bf:	e8 a4 e0 ff ff       	callq  1668 <_init+0x110>
    35c4:	48 8b 0d 95 2a 20 00 	mov    0x202a95(%rip),%rcx        # 206060 <stderr@@GLIBC_2.2.5>
    35cb:	48 8d 3d 7e 14 00 00 	lea    0x147e(%rip),%rdi        # 4a50 <_IO_stdin_used+0xb90>
    35d2:	ba 26 00 00 00       	mov    $0x26,%edx
    35d7:	be 01 00 00 00       	mov    $0x1,%esi
    35dc:	e8 97 e0 ff ff       	callq  1678 <_init+0x120>
    35e1:	bf 10 00 00 00       	mov    $0x10,%edi
    35e6:	e8 7d e0 ff ff       	callq  1668 <_init+0x110>
    35eb:	0f 1f 44 00 00       	nopl   0x0(%rax,%rax,1)

00000000000035f0 <sha256_transform>:
    35f0:	41 57                	push   %r15
    35f2:	41 56                	push   %r14
    35f4:	41 b8 10 00 00 00    	mov    $0x10,%r8d
    35fa:	41 55                	push   %r13
    35fc:	41 54                	push   %r12
    35fe:	55                   	push   %rbp
    35ff:	53                   	push   %rbx
    3600:	48 81 ec 48 01 00 00 	sub    $0x148,%rsp
    3607:	66 0f 6f 1d 91 16 00 	movdqa 0x1691(%rip),%xmm3        # 4ca0 <k+0x100>
    360e:	00 
    360f:	4c 8d 6c 24 30       	lea    0x30(%rsp),%r13
    3614:	64 48 8b 04 25 28 00 	mov    %fs:0x28,%rax
    361b:	00 00 
    361d:	48 89 84 24 38 01 00 	mov    %rax,0x138(%rsp)
    3624:	00 
    3625:	31 c0                	xor    %eax,%eax
    3627:	f3 0f 6f 0e          	movdqu (%rsi),%xmm1
    362b:	4d 8d 55 04          	lea    0x4(%r13),%r10
    362f:	66 0f 6f d3          	movdqa %xmm3,%xmm2
    3633:	f3 0f 6f 6e 10       	movdqu 0x10(%rsi),%xmm5
    3638:	66 0f 6f f3          	movdqa %xmm3,%xmm6
    363c:	66 0f db d1          	pand   %xmm1,%xmm2
    3640:	66 0f 71 d1 08       	psrlw  $0x8,%xmm1
    3645:	66 0f db f5          	pand   %xmm5,%xmm6
    3649:	f3 0f 6f 66 20       	movdqu 0x20(%rsi),%xmm4
    364e:	66 0f 71 d5 08       	psrlw  $0x8,%xmm5
    3653:	66 0f 67 cd          	packuswb %xmm5,%xmm1
    3657:	f3 0f 6f 46 30       	movdqu 0x30(%rsi),%xmm0
    365c:	66 0f 6f eb          	movdqa %xmm3,%xmm5
    3660:	66 0f 67 d6          	packuswb %xmm6,%xmm2
    3664:	66 0f 6f f3          	movdqa %xmm3,%xmm6
    3668:	66 0f db e8          	pand   %xmm0,%xmm5
    366c:	66 0f 71 d0 08       	psrlw  $0x8,%xmm0
    3671:	66 0f db f4          	pand   %xmm4,%xmm6
    3675:	66 0f 71 d4 08       	psrlw  $0x8,%xmm4
    367a:	66 0f 67 e0          	packuswb %xmm0,%xmm4
    367e:	66 0f 6f c3          	movdqa %xmm3,%xmm0
    3682:	66 0f 67 f5          	packuswb %xmm5,%xmm6
    3686:	66 0f 6f eb          	movdqa %xmm3,%xmm5
    368a:	66 0f db c6          	pand   %xmm6,%xmm0
    368e:	66 0f 71 d6 08       	psrlw  $0x8,%xmm6
    3693:	66 0f db ea          	pand   %xmm2,%xmm5
    3697:	66 0f 71 d2 08       	psrlw  $0x8,%xmm2
    369c:	66 0f 67 d6          	packuswb %xmm6,%xmm2
    36a0:	66 0f 67 e8          	packuswb %xmm0,%xmm5
    36a4:	66 0f 6f c3          	movdqa %xmm3,%xmm0
    36a8:	66 0f db dc          	pand   %xmm4,%xmm3
    36ac:	66 0f 71 d4 08       	psrlw  $0x8,%xmm4
    36b1:	66 0f 6f fa          	movdqa %xmm2,%xmm7
    36b5:	66 0f db c1          	pand   %xmm1,%xmm0
    36b9:	66 0f 71 d1 08       	psrlw  $0x8,%xmm1
    36be:	66 44 0f 6f cd       	movdqa %xmm5,%xmm9
    36c3:	66 0f 67 cc          	packuswb %xmm4,%xmm1
    36c7:	66 0f 67 c3          	packuswb %xmm3,%xmm0
    36cb:	66 0f ef db          	pxor   %xmm3,%xmm3
    36cf:	66 44 0f 6f c1       	movdqa %xmm1,%xmm8
    36d4:	66 0f 6f e0          	movdqa %xmm0,%xmm4
    36d8:	66 44 0f 60 cb       	punpcklbw %xmm3,%xmm9
    36dd:	66 0f 60 e3          	punpcklbw %xmm3,%xmm4
    36e1:	66 0f 68 eb          	punpckhbw %xmm3,%xmm5
    36e5:	66 0f 68 c3          	punpckhbw %xmm3,%xmm0
    36e9:	66 45 0f 6f d1       	movdqa %xmm9,%xmm10
    36ee:	66 0f 60 fb          	punpcklbw %xmm3,%xmm7
    36f2:	66 0f 68 d3          	punpckhbw %xmm3,%xmm2
    36f6:	66 0f 6f f4          	movdqa %xmm4,%xmm6
    36fa:	66 44 0f 60 c3       	punpcklbw %xmm3,%xmm8
    36ff:	66 0f 68 cb          	punpckhbw %xmm3,%xmm1
    3703:	66 0f ef db          	pxor   %xmm3,%xmm3
    3707:	66 0f 61 f3          	punpcklwd %xmm3,%xmm6
    370b:	66 44 0f 61 d3       	punpcklwd %xmm3,%xmm10
    3710:	66 0f 69 e3          	punpckhwd %xmm3,%xmm4
    3714:	66 0f 72 f6 10       	pslld  $0x10,%xmm6
    3719:	66 44 0f 69 cb       	punpckhwd %xmm3,%xmm9
    371e:	66 41 0f 72 f2 18    	pslld  $0x18,%xmm10
    3724:	66 41 0f eb f2       	por    %xmm10,%xmm6
    3729:	66 45 0f 6f d0       	movdqa %xmm8,%xmm10
    372e:	66 0f 72 f4 10       	pslld  $0x10,%xmm4
    3733:	66 44 0f 69 c3       	punpckhwd %xmm3,%xmm8
    3738:	66 44 0f 61 d3       	punpcklwd %xmm3,%xmm10
    373d:	66 41 0f 72 f1 18    	pslld  $0x18,%xmm9
    3743:	66 41 0f eb e1       	por    %xmm9,%xmm4
    3748:	66 41 0f eb f2       	por    %xmm10,%xmm6
    374d:	66 44 0f 6f d7       	movdqa %xmm7,%xmm10
    3752:	66 41 0f eb e0       	por    %xmm8,%xmm4
    3757:	66 0f 69 fb          	punpckhwd %xmm3,%xmm7
    375b:	66 44 0f 61 d3       	punpcklwd %xmm3,%xmm10
    3760:	66 0f 72 f7 08       	pslld  $0x8,%xmm7
    3765:	66 0f eb e7          	por    %xmm7,%xmm4
    3769:	66 41 0f 72 f2 08    	pslld  $0x8,%xmm10
    376f:	66 41 0f eb f2       	por    %xmm10,%xmm6
    3774:	0f 29 64 24 40       	movaps %xmm4,0x40(%rsp)
    3779:	66 41 0f 7e f3       	movd   %xmm6,%r11d
    377e:	66 0f 6f e0          	movdqa %xmm0,%xmm4
    3782:	0f 29 74 24 30       	movaps %xmm6,0x30(%rsp)
    3787:	66 0f 6f f5          	movdqa %xmm5,%xmm6
    378b:	66 0f 61 e3          	punpcklwd %xmm3,%xmm4
    378f:	66 0f 61 f3          	punpcklwd %xmm3,%xmm6
    3793:	66 0f 69 c3          	punpckhwd %xmm3,%xmm0
    3797:	66 0f 72 f4 10       	pslld  $0x10,%xmm4
    379c:	66 0f 69 eb          	punpckhwd %xmm3,%xmm5
    37a0:	66 0f 72 f6 18       	pslld  $0x18,%xmm6
    37a5:	66 0f eb e6          	por    %xmm6,%xmm4
    37a9:	66 0f 6f f1          	movdqa %xmm1,%xmm6
    37ad:	66 0f 72 f0 10       	pslld  $0x10,%xmm0
    37b2:	66 0f 69 cb          	punpckhwd %xmm3,%xmm1
    37b6:	66 0f 61 f3          	punpcklwd %xmm3,%xmm6
    37ba:	66 0f 72 f5 18       	pslld  $0x18,%xmm5
    37bf:	66 0f eb c5          	por    %xmm5,%xmm0
    37c3:	66 0f eb e6          	por    %xmm6,%xmm4
    37c7:	66 0f 6f f2          	movdqa %xmm2,%xmm6
    37cb:	66 0f eb c1          	por    %xmm1,%xmm0
    37cf:	66 0f 69 d3          	punpckhwd %xmm3,%xmm2
    37d3:	66 0f 61 f3          	punpcklwd %xmm3,%xmm6
    37d7:	66 0f 72 f2 08       	pslld  $0x8,%xmm2
    37dc:	66 0f eb c2          	por    %xmm2,%xmm0
    37e0:	66 0f 72 f6 08       	pslld  $0x8,%xmm6
    37e5:	66 0f eb e6          	por    %xmm6,%xmm4
    37e9:	0f 29 44 24 60       	movaps %xmm0,0x60(%rsp)
    37ee:	44 8b 4c 24 68       	mov    0x68(%rsp),%r9d
    37f3:	8b 44 24 6c          	mov    0x6c(%rsp),%eax
    37f7:	0f 29 64 24 50       	movaps %xmm4,0x50(%rsp)
    37fc:	0f 1f 40 00          	nopl   0x0(%rax)
    3800:	44 89 c9             	mov    %r9d,%ecx
    3803:	44 89 ca             	mov    %r9d,%edx
    3806:	41 c1 e9 0a          	shr    $0xa,%r9d
    380a:	c1 c2 0d             	rol    $0xd,%edx
    380d:	c1 c1 0f             	rol    $0xf,%ecx
    3810:	41 83 c0 02          	add    $0x2,%r8d
    3814:	31 d1                	xor    %edx,%ecx
    3816:	49 83 c2 08          	add    $0x8,%r10
    381a:	41 8b 72 f8          	mov    -0x8(%r10),%esi
    381e:	41 31 c9             	xor    %ecx,%r9d
    3821:	41 8b 4a 18          	mov    0x18(%r10),%ecx
    3825:	45 01 d9             	add    %r11d,%r9d
    3828:	45 8b 5a fc          	mov    -0x4(%r10),%r11d
    382c:	44 01 c9             	add    %r9d,%ecx
    382f:	89 f2                	mov    %esi,%edx
    3831:	41 89 f1             	mov    %esi,%r9d
    3834:	c1 c2 0e             	rol    $0xe,%edx
    3837:	41 c1 c9 07          	ror    $0x7,%r9d
    383b:	41 31 d1             	xor    %edx,%r9d
    383e:	89 f2                	mov    %esi,%edx
    3840:	c1 ea 03             	shr    $0x3,%edx
    3843:	41 31 d1             	xor    %edx,%r9d
    3846:	89 c2                	mov    %eax,%edx
    3848:	41 01 c9             	add    %ecx,%r9d
    384b:	89 c1                	mov    %eax,%ecx
    384d:	c1 c2 0f             	rol    $0xf,%edx
    3850:	c1 c1 0d             	rol    $0xd,%ecx
    3853:	c1 e8 0a             	shr    $0xa,%eax
    3856:	45 89 4a 34          	mov    %r9d,0x34(%r10)
    385a:	31 ca                	xor    %ecx,%edx
    385c:	44 89 d9             	mov    %r11d,%ecx
    385f:	31 d0                	xor    %edx,%eax
    3861:	41 03 42 1c          	add    0x1c(%r10),%eax
    3865:	c1 c1 0e             	rol    $0xe,%ecx
    3868:	8d 14 30             	lea    (%rax,%rsi,1),%edx
    386b:	44 89 d8             	mov    %r11d,%eax
    386e:	c1 c8 07             	ror    $0x7,%eax
    3871:	31 c8                	xor    %ecx,%eax
    3873:	44 89 d9             	mov    %r11d,%ecx
    3876:	c1 e9 03             	shr    $0x3,%ecx
    3879:	31 c8                	xor    %ecx,%eax
    387b:	01 d0                	add    %edx,%eax
    387d:	41 89 42 38          	mov    %eax,0x38(%r10)
    3881:	41 83 f8 3e          	cmp    $0x3e,%r8d
    3885:	0f 85 75 ff ff ff    	jne    3800 <sha256_transform+0x210>
    388b:	0f 1f 44 00 00       	nopl   0x0(%rax,%rax,1)
    3890:	41 8d 40 fe          	lea    -0x2(%r8),%eax
    3894:	41 8d 50 f1          	lea    -0xf(%r8),%edx
    3898:	44 89 c6             	mov    %r8d,%esi
    389b:	8b 44 84 30          	mov    0x30(%rsp,%rax,4),%eax
    389f:	8b 4c 94 30          	mov    0x30(%rsp,%rdx,4),%ecx
    38a3:	41 89 c1             	mov    %eax,%r9d
    38a6:	89 c2                	mov    %eax,%edx
    38a8:	c1 e8 0a             	shr    $0xa,%eax
    38ab:	41 c1 c1 0d          	rol    $0xd,%r9d
    38af:	c1 c2 0f             	rol    $0xf,%edx
    38b2:	44 31 ca             	xor    %r9d,%edx
    38b5:	45 8d 48 f9          	lea    -0x7(%r8),%r9d
    38b9:	31 c2                	xor    %eax,%edx
    38bb:	41 8d 40 f0          	lea    -0x10(%r8),%eax
    38bf:	41 83 c0 01          	add    $0x1,%r8d
    38c3:	8b 44 84 30          	mov    0x30(%rsp,%rax,4),%eax
    38c7:	42 03 44 8c 30       	add    0x30(%rsp,%r9,4),%eax
    38cc:	41 89 c9             	mov    %ecx,%r9d
    38cf:	41 c1 c1 0e          	rol    $0xe,%r9d
    38d3:	01 c2                	add    %eax,%edx
    38d5:	89 c8                	mov    %ecx,%eax
    38d7:	c1 e9 03             	shr    $0x3,%ecx
    38da:	c1 c8 07             	ror    $0x7,%eax
    38dd:	44 31 c8             	xor    %r9d,%eax
    38e0:	31 c8                	xor    %ecx,%eax
    38e2:	01 d0                	add    %edx,%eax
    38e4:	41 83 f8 40          	cmp    $0x40,%r8d
    38e8:	89 44 b4 30          	mov    %eax,0x30(%rsp,%rsi,4)
    38ec:	75 a2                	jne    3890 <sha256_transform+0x2a0>
    38ee:	8b 5f 54             	mov    0x54(%rdi),%ebx
    38f1:	8b 57 68             	mov    0x68(%rdi),%edx
    38f4:	45 31 c9             	xor    %r9d,%r9d
    38f7:	8b 47 50             	mov    0x50(%rdi),%eax
    38fa:	4c 8d 35 9f 12 00 00 	lea    0x129f(%rip),%r14        # 4ba0 <k>
    3901:	41 89 da             	mov    %ebx,%r10d
    3904:	89 5c 24 10          	mov    %ebx,0x10(%rsp)
    3908:	8b 5f 58             	mov    0x58(%rdi),%ebx
    390b:	89 d5                	mov    %edx,%ebp
    390d:	89 54 24 24          	mov    %edx,0x24(%rsp)
    3911:	8b 57 6c             	mov    0x6c(%rdi),%edx
    3914:	89 44 24 0c          	mov    %eax,0xc(%rsp)
    3918:	41 89 c0             	mov    %eax,%r8d
    391b:	41 89 db             	mov    %ebx,%r11d
    391e:	89 5c 24 14          	mov    %ebx,0x14(%rsp)
    3922:	8b 5f 5c             	mov    0x5c(%rdi),%ebx
    3925:	89 54 24 28          	mov    %edx,0x28(%rsp)
    3929:	41 89 dc             	mov    %ebx,%r12d
    392c:	89 5c 24 18          	mov    %ebx,0x18(%rsp)
    3930:	8b 5f 60             	mov    0x60(%rdi),%ebx
    3933:	89 de                	mov    %ebx,%esi
    3935:	89 5c 24 1c          	mov    %ebx,0x1c(%rsp)
    3939:	8b 5f 64             	mov    0x64(%rdi),%ebx
    393c:	89 5c 24 20          	mov    %ebx,0x20(%rsp)
    3940:	eb 16                	jmp    3958 <sha256_transform+0x368>
    3942:	66 0f 1f 44 00 00    	nopw   0x0(%rax,%rax,1)
    3948:	89 dd                	mov    %ebx,%ebp
    394a:	45 89 d3             	mov    %r10d,%r11d
    394d:	89 f3                	mov    %esi,%ebx
    394f:	45 89 c2             	mov    %r8d,%r10d
    3952:	44 89 fe             	mov    %r15d,%esi
    3955:	41 89 c0             	mov    %eax,%r8d
    3958:	89 f1                	mov    %esi,%ecx
    395a:	89 f0                	mov    %esi,%eax
    395c:	41 89 f7             	mov    %esi,%r15d
    395f:	c1 c8 0b             	ror    $0xb,%eax
    3962:	c1 c9 06             	ror    $0x6,%ecx
    3965:	41 21 df             	and    %ebx,%r15d
    3968:	31 c1                	xor    %eax,%ecx
    396a:	89 f0                	mov    %esi,%eax
    396c:	c1 c0 07             	rol    $0x7,%eax
    396f:	31 c1                	xor    %eax,%ecx
    3971:	43 8b 44 0d 00       	mov    0x0(%r13,%r9,1),%eax
    3976:	43 03 04 0e          	add    (%r14,%r9,1),%eax
    397a:	49 83 c1 04          	add    $0x4,%r9
    397e:	01 c1                	add    %eax,%ecx
    3980:	89 f0                	mov    %esi,%eax
    3982:	f7 d0                	not    %eax
    3984:	21 e8                	and    %ebp,%eax
    3986:	44 31 f8             	xor    %r15d,%eax
    3989:	45 89 d7             	mov    %r10d,%r15d
    398c:	01 c8                	add    %ecx,%eax
    398e:	44 89 c1             	mov    %r8d,%ecx
    3991:	45 21 df             	and    %r11d,%r15d
    3994:	01 d0                	add    %edx,%eax
    3996:	44 89 c2             	mov    %r8d,%edx
    3999:	c1 c9 0d             	ror    $0xd,%ecx
    399c:	c1 ca 02             	ror    $0x2,%edx
    399f:	31 ca                	xor    %ecx,%edx
    39a1:	44 89 c1             	mov    %r8d,%ecx
    39a4:	c1 c1 0a             	rol    $0xa,%ecx
    39a7:	31 ca                	xor    %ecx,%edx
    39a9:	44 89 d9             	mov    %r11d,%ecx
    39ac:	44 31 d1             	xor    %r10d,%ecx
    39af:	44 21 c1             	and    %r8d,%ecx
    39b2:	44 31 f9             	xor    %r15d,%ecx
    39b5:	46 8d 3c 20          	lea    (%rax,%r12,1),%r15d
    39b9:	45 89 dc             	mov    %r11d,%r12d
    39bc:	01 ca                	add    %ecx,%edx
    39be:	01 d0                	add    %edx,%eax
    39c0:	49 81 f9 00 01 00 00 	cmp    $0x100,%r9
    39c7:	89 ea                	mov    %ebp,%edx
    39c9:	0f 85 79 ff ff ff    	jne    3948 <sha256_transform+0x358>
    39cf:	44 89 54 24 2c       	mov    %r10d,0x2c(%rsp)
    39d4:	66 0f 6e 6c 24 10    	movd   0x10(%rsp),%xmm5
    39da:	66 0f 6e 44 24 2c    	movd   0x2c(%rsp),%xmm0
    39e0:	44 89 5c 24 2c       	mov    %r11d,0x2c(%rsp)
    39e5:	66 0f 6e 7c 24 2c    	movd   0x2c(%rsp),%xmm7
    39eb:	89 44 24 2c          	mov    %eax,0x2c(%rsp)
    39ef:	66 0f 6e 4c 24 2c    	movd   0x2c(%rsp),%xmm1
    39f5:	44 89 44 24 2c       	mov    %r8d,0x2c(%rsp)
    39fa:	66 0f 62 c7          	punpckldq %xmm7,%xmm0
    39fe:	66 0f 6e 7c 24 2c    	movd   0x2c(%rsp),%xmm7
    3a04:	66 0f 6e 54 24 14    	movd   0x14(%rsp),%xmm2
    3a0a:	66 0f 62 cf          	punpckldq %xmm7,%xmm1
    3a0e:	48 8b 84 24 38 01 00 	mov    0x138(%rsp),%rax
    3a15:	00 
    3a16:	64 48 33 04 25 28 00 	xor    %fs:0x28,%rax
    3a1d:	00 00 
    3a1f:	66 0f 6f f9          	movdqa %xmm1,%xmm7
    3a23:	66 0f 6e 4c 24 0c    	movd   0xc(%rsp),%xmm1
    3a29:	89 5c 24 0c          	mov    %ebx,0xc(%rsp)
    3a2d:	66 0f 6c f8          	punpcklqdq %xmm0,%xmm7
    3a31:	66 0f 62 cd          	punpckldq %xmm5,%xmm1
    3a35:	66 0f 6f c7          	movdqa %xmm7,%xmm0
    3a39:	66 0f 6e 7c 24 18    	movd   0x18(%rsp),%xmm7
    3a3f:	66 0f 62 d7          	punpckldq %xmm7,%xmm2
    3a43:	66 0f 6c ca          	punpcklqdq %xmm2,%xmm1
    3a47:	66 0f 6e 54 24 24    	movd   0x24(%rsp),%xmm2
    3a4d:	66 0f fe c1          	paddd  %xmm1,%xmm0
    3a51:	0f 11 47 50          	movups %xmm0,0x50(%rdi)
    3a55:	66 0f 6e 44 24 0c    	movd   0xc(%rsp),%xmm0
    3a5b:	89 6c 24 0c          	mov    %ebp,0xc(%rsp)
    3a5f:	66 0f 6e 7c 24 0c    	movd   0xc(%rsp),%xmm7
    3a65:	44 89 7c 24 0c       	mov    %r15d,0xc(%rsp)
    3a6a:	66 0f 6e 4c 24 0c    	movd   0xc(%rsp),%xmm1
    3a70:	89 74 24 0c          	mov    %esi,0xc(%rsp)
    3a74:	66 0f 6e 6c 24 0c    	movd   0xc(%rsp),%xmm5
    3a7a:	66 0f 62 c7          	punpckldq %xmm7,%xmm0
    3a7e:	66 0f 62 cd          	punpckldq %xmm5,%xmm1
    3a82:	66 0f 6e 6c 24 20    	movd   0x20(%rsp),%xmm5
    3a88:	66 0f 6f f9          	movdqa %xmm1,%xmm7
    3a8c:	66 0f 6e 4c 24 1c    	movd   0x1c(%rsp),%xmm1
    3a92:	66 0f 6c f8          	punpcklqdq %xmm0,%xmm7
    3a96:	66 0f 62 cd          	punpckldq %xmm5,%xmm1
    3a9a:	66 0f 6f c7          	movdqa %xmm7,%xmm0
    3a9e:	66 0f 6e 7c 24 28    	movd   0x28(%rsp),%xmm7
    3aa4:	66 0f 62 d7          	punpckldq %xmm7,%xmm2
    3aa8:	66 0f 6c ca          	punpcklqdq %xmm2,%xmm1
    3aac:	66 0f fe c1          	paddd  %xmm1,%xmm0
    3ab0:	0f 11 47 60          	movups %xmm0,0x60(%rdi)
    3ab4:	75 12                	jne    3ac8 <sha256_transform+0x4d8>
    3ab6:	48 81 c4 48 01 00 00 	add    $0x148,%rsp
    3abd:	5b                   	pop    %rbx
    3abe:	5d                   	pop    %rbp
    3abf:	41 5c                	pop    %r12
    3ac1:	41 5d                	pop    %r13
    3ac3:	41 5e                	pop    %r14
    3ac5:	41 5f                	pop    %r15
    3ac7:	c3                   	retq   
    3ac8:	e8 eb da ff ff       	callq  15b8 <_init+0x60>
    3acd:	0f 1f 00             	nopl   (%rax)

0000000000003ad0 <sha256_init>:
    3ad0:	66 0f 6f 05 d8 11 00 	movdqa 0x11d8(%rip),%xmm0        # 4cb0 <k+0x110>
    3ad7:	00 
    3ad8:	c7 47 40 00 00 00 00 	movl   $0x0,0x40(%rdi)
    3adf:	48 c7 47 48 00 00 00 	movq   $0x0,0x48(%rdi)
    3ae6:	00 
    3ae7:	0f 11 47 50          	movups %xmm0,0x50(%rdi)
    3aeb:	66 0f 6f 05 cd 11 00 	movdqa 0x11cd(%rip),%xmm0        # 4cc0 <k+0x120>
    3af2:	00 
    3af3:	0f 11 47 60          	movups %xmm0,0x60(%rdi)
    3af7:	c3                   	retq   
    3af8:	0f 1f 84 00 00 00 00 	nopl   0x0(%rax,%rax,1)
    3aff:	00 

0000000000003b00 <sha256_update>:
    3b00:	48 85 d2             	test   %rdx,%rdx
    3b03:	74 7d                	je     3b82 <sha256_update+0x82>
    3b05:	41 55                	push   %r13
    3b07:	41 54                	push   %r12
    3b09:	49 89 f5             	mov    %rsi,%r13
    3b0c:	55                   	push   %rbp
    3b0d:	53                   	push   %rbx
    3b0e:	49 89 d4             	mov    %rdx,%r12
    3b11:	48 89 fd             	mov    %rdi,%rbp
    3b14:	31 c9                	xor    %ecx,%ecx
    3b16:	31 db                	xor    %ebx,%ebx
    3b18:	48 83 ec 08          	sub    $0x8,%rsp
    3b1c:	8b 47 40             	mov    0x40(%rdi),%eax
    3b1f:	eb 12                	jmp    3b33 <sha256_update+0x33>
    3b21:	0f 1f 80 00 00 00 00 	nopl   0x0(%rax)
    3b28:	8d 4b 01             	lea    0x1(%rbx),%ecx
    3b2b:	4c 39 e1             	cmp    %r12,%rcx
    3b2e:	48 89 cb             	mov    %rcx,%rbx
    3b31:	73 45                	jae    3b78 <sha256_update+0x78>
    3b33:	41 0f b6 7c 0d 00    	movzbl 0x0(%r13,%rcx,1),%edi
    3b39:	89 c1                	mov    %eax,%ecx
    3b3b:	83 c0 01             	add    $0x1,%eax
    3b3e:	83 f8 40             	cmp    $0x40,%eax
    3b41:	40 88 7c 0d 00       	mov    %dil,0x0(%rbp,%rcx,1)
    3b46:	89 45 40             	mov    %eax,0x40(%rbp)
    3b49:	75 dd                	jne    3b28 <sha256_update+0x28>
    3b4b:	48 89 ee             	mov    %rbp,%rsi
    3b4e:	48 89 ef             	mov    %rbp,%rdi
    3b51:	e8 9a fa ff ff       	callq  35f0 <sha256_transform>
    3b56:	8d 4b 01             	lea    0x1(%rbx),%ecx
    3b59:	48 81 45 48 00 02 00 	addq   $0x200,0x48(%rbp)
    3b60:	00 
    3b61:	31 c0                	xor    %eax,%eax
    3b63:	c7 45 40 00 00 00 00 	movl   $0x0,0x40(%rbp)
    3b6a:	4c 39 e1             	cmp    %r12,%rcx
    3b6d:	48 89 cb             	mov    %rcx,%rbx
    3b70:	72 c1                	jb     3b33 <sha256_update+0x33>
    3b72:	66 0f 1f 44 00 00    	nopw   0x0(%rax,%rax,1)
    3b78:	48 83 c4 08          	add    $0x8,%rsp
    3b7c:	5b                   	pop    %rbx
    3b7d:	5d                   	pop    %rbp
    3b7e:	41 5c                	pop    %r12
    3b80:	41 5d                	pop    %r13
    3b82:	f3 c3                	repz retq 
    3b84:	66 90                	xchg   %ax,%ax
    3b86:	66 2e 0f 1f 84 00 00 	nopw   %cs:0x0(%rax,%rax,1)
    3b8d:	00 00 00 

0000000000003b90 <sha256_final>:
    3b90:	55                   	push   %rbp
    3b91:	53                   	push   %rbx
    3b92:	48 89 f5             	mov    %rsi,%rbp
    3b95:	48 89 fb             	mov    %rdi,%rbx
    3b98:	48 83 ec 08          	sub    $0x8,%rsp
    3b9c:	8b 4f 40             	mov    0x40(%rdi),%ecx
    3b9f:	83 f9 37             	cmp    $0x37,%ecx
    3ba2:	0f 87 78 01 00 00    	ja     3d20 <sha256_final+0x190>
    3ba8:	8d 41 01             	lea    0x1(%rcx),%eax
    3bab:	89 ca                	mov    %ecx,%edx
    3bad:	c6 04 17 80          	movb   $0x80,(%rdi,%rdx,1)
    3bb1:	83 f8 38             	cmp    $0x38,%eax
    3bb4:	0f 84 d5 01 00 00    	je     3d8f <sha256_final+0x1ff>
    3bba:	66 0f 1f 44 00 00    	nopw   0x0(%rax,%rax,1)
    3bc0:	89 c2                	mov    %eax,%edx
    3bc2:	83 c0 01             	add    $0x1,%eax
    3bc5:	83 f8 38             	cmp    $0x38,%eax
    3bc8:	c6 04 13 00          	movb   $0x0,(%rbx,%rdx,1)
    3bcc:	75 f2                	jne    3bc0 <sha256_final+0x30>
    3bce:	8d 04 cd 00 00 00 00 	lea    0x0(,%rcx,8),%eax
    3bd5:	48 03 43 48          	add    0x48(%rbx),%rax
    3bd9:	48 89 de             	mov    %rbx,%rsi
    3bdc:	48 89 df             	mov    %rbx,%rdi
    3bdf:	48 89 c2             	mov    %rax,%rdx
    3be2:	48 89 43 48          	mov    %rax,0x48(%rbx)
    3be6:	88 43 3f             	mov    %al,0x3f(%rbx)
    3be9:	48 c1 ea 08          	shr    $0x8,%rdx
    3bed:	88 53 3e             	mov    %dl,0x3e(%rbx)
    3bf0:	48 89 c2             	mov    %rax,%rdx
    3bf3:	48 c1 ea 10          	shr    $0x10,%rdx
    3bf7:	88 53 3d             	mov    %dl,0x3d(%rbx)
    3bfa:	48 89 c2             	mov    %rax,%rdx
    3bfd:	48 c1 ea 18          	shr    $0x18,%rdx
    3c01:	88 53 3c             	mov    %dl,0x3c(%rbx)
    3c04:	48 89 c2             	mov    %rax,%rdx
    3c07:	48 c1 ea 20          	shr    $0x20,%rdx
    3c0b:	88 53 3b             	mov    %dl,0x3b(%rbx)
    3c0e:	48 89 c2             	mov    %rax,%rdx
    3c11:	48 c1 ea 28          	shr    $0x28,%rdx
    3c15:	88 53 3a             	mov    %dl,0x3a(%rbx)
    3c18:	48 89 c2             	mov    %rax,%rdx
    3c1b:	48 c1 e8 38          	shr    $0x38,%rax
    3c1f:	48 c1 ea 30          	shr    $0x30,%rdx
    3c23:	88 43 38             	mov    %al,0x38(%rbx)
    3c26:	88 53 39             	mov    %dl,0x39(%rbx)
    3c29:	e8 c2 f9 ff ff       	callq  35f0 <sha256_transform>
    3c2e:	0f b6 43 53          	movzbl 0x53(%rbx),%eax
    3c32:	88 45 00             	mov    %al,0x0(%rbp)
    3c35:	0f b6 43 57          	movzbl 0x57(%rbx),%eax
    3c39:	88 45 04             	mov    %al,0x4(%rbp)
    3c3c:	0f b6 43 5b          	movzbl 0x5b(%rbx),%eax
    3c40:	88 45 08             	mov    %al,0x8(%rbp)
    3c43:	0f b6 43 5f          	movzbl 0x5f(%rbx),%eax
    3c47:	88 45 0c             	mov    %al,0xc(%rbp)
    3c4a:	0f b6 43 63          	movzbl 0x63(%rbx),%eax
    3c4e:	88 45 10             	mov    %al,0x10(%rbp)
    3c51:	0f b6 43 67          	movzbl 0x67(%rbx),%eax
    3c55:	88 45 14             	mov    %al,0x14(%rbp)
    3c58:	0f b6 43 6b          	movzbl 0x6b(%rbx),%eax
    3c5c:	88 45 18             	mov    %al,0x18(%rbp)
    3c5f:	0f b6 43 6f          	movzbl 0x6f(%rbx),%eax
    3c63:	88 45 1c             	mov    %al,0x1c(%rbp)
    3c66:	0f b7 43 52          	movzwl 0x52(%rbx),%eax
    3c6a:	88 45 01             	mov    %al,0x1(%rbp)
    3c6d:	0f b7 43 56          	movzwl 0x56(%rbx),%eax
    3c71:	88 45 05             	mov    %al,0x5(%rbp)
    3c74:	0f b7 43 5a          	movzwl 0x5a(%rbx),%eax
    3c78:	88 45 09             	mov    %al,0x9(%rbp)
    3c7b:	0f b7 43 5e          	movzwl 0x5e(%rbx),%eax
    3c7f:	88 45 0d             	mov    %al,0xd(%rbp)
    3c82:	0f b7 43 62          	movzwl 0x62(%rbx),%eax
    3c86:	88 45 11             	mov    %al,0x11(%rbp)
    3c89:	0f b7 43 66          	movzwl 0x66(%rbx),%eax
    3c8d:	88 45 15             	mov    %al,0x15(%rbp)
    3c90:	0f b7 43 6a          	movzwl 0x6a(%rbx),%eax
    3c94:	88 45 19             	mov    %al,0x19(%rbp)
    3c97:	0f b7 43 6e          	movzwl 0x6e(%rbx),%eax
    3c9b:	88 45 1d             	mov    %al,0x1d(%rbp)
    3c9e:	8b 43 50             	mov    0x50(%rbx),%eax
    3ca1:	c1 e8 08             	shr    $0x8,%eax
    3ca4:	88 45 02             	mov    %al,0x2(%rbp)
    3ca7:	8b 43 54             	mov    0x54(%rbx),%eax
    3caa:	c1 e8 08             	shr    $0x8,%eax
    3cad:	88 45 06             	mov    %al,0x6(%rbp)
    3cb0:	8b 43 58             	mov    0x58(%rbx),%eax
    3cb3:	c1 e8 08             	shr    $0x8,%eax
    3cb6:	88 45 0a             	mov    %al,0xa(%rbp)
    3cb9:	8b 43 5c             	mov    0x5c(%rbx),%eax
    3cbc:	c1 e8 08             	shr    $0x8,%eax
    3cbf:	88 45 0e             	mov    %al,0xe(%rbp)
    3cc2:	8b 43 60             	mov    0x60(%rbx),%eax
    3cc5:	c1 e8 08             	shr    $0x8,%eax
    3cc8:	88 45 12             	mov    %al,0x12(%rbp)
    3ccb:	8b 43 64             	mov    0x64(%rbx),%eax
    3cce:	c1 e8 08             	shr    $0x8,%eax
    3cd1:	88 45 16             	mov    %al,0x16(%rbp)
    3cd4:	8b 43 68             	mov    0x68(%rbx),%eax
    3cd7:	c1 e8 08             	shr    $0x8,%eax
    3cda:	88 45 1a             	mov    %al,0x1a(%rbp)
    3cdd:	8b 43 6c             	mov    0x6c(%rbx),%eax
    3ce0:	c1 e8 08             	shr    $0x8,%eax
    3ce3:	88 45 1e             	mov    %al,0x1e(%rbp)
    3ce6:	8b 43 50             	mov    0x50(%rbx),%eax
    3ce9:	88 45 03             	mov    %al,0x3(%rbp)
    3cec:	8b 43 54             	mov    0x54(%rbx),%eax
    3cef:	88 45 07             	mov    %al,0x7(%rbp)
    3cf2:	8b 43 58             	mov    0x58(%rbx),%eax
    3cf5:	88 45 0b             	mov    %al,0xb(%rbp)
    3cf8:	8b 43 5c             	mov    0x5c(%rbx),%eax
    3cfb:	88 45 0f             	mov    %al,0xf(%rbp)
    3cfe:	8b 43 60             	mov    0x60(%rbx),%eax
    3d01:	88 45 13             	mov    %al,0x13(%rbp)
    3d04:	8b 43 64             	mov    0x64(%rbx),%eax
    3d07:	88 45 17             	mov    %al,0x17(%rbp)
    3d0a:	8b 43 68             	mov    0x68(%rbx),%eax
    3d0d:	88 45 1b             	mov    %al,0x1b(%rbp)
    3d10:	8b 43 6c             	mov    0x6c(%rbx),%eax
    3d13:	88 45 1f             	mov    %al,0x1f(%rbp)
    3d16:	48 83 c4 08          	add    $0x8,%rsp
    3d1a:	5b                   	pop    %rbx
    3d1b:	5d                   	pop    %rbp
    3d1c:	c3                   	retq   
    3d1d:	0f 1f 00             	nopl   (%rax)
    3d20:	8d 51 01             	lea    0x1(%rcx),%edx
    3d23:	89 c8                	mov    %ecx,%eax
    3d25:	c6 04 07 80          	movb   $0x80,(%rdi,%rax,1)
    3d29:	83 fa 3f             	cmp    $0x3f,%edx
    3d2c:	77 26                	ja     3d54 <sha256_final+0x1c4>
    3d2e:	be 3e 00 00 00       	mov    $0x3e,%esi
    3d33:	48 8d 04 17          	lea    (%rdi,%rdx,1),%rax
    3d37:	89 f7                	mov    %esi,%edi
    3d39:	29 cf                	sub    %ecx,%edi
    3d3b:	48 8d 54 3a 01       	lea    0x1(%rdx,%rdi,1),%rdx
    3d40:	48 01 da             	add    %rbx,%rdx
    3d43:	0f 1f 44 00 00       	nopl   0x0(%rax,%rax,1)
    3d48:	c6 00 00             	movb   $0x0,(%rax)
    3d4b:	48 83 c0 01          	add    $0x1,%rax
    3d4f:	48 39 d0             	cmp    %rdx,%rax
    3d52:	75 f4                	jne    3d48 <sha256_final+0x1b8>
    3d54:	48 89 df             	mov    %rbx,%rdi
    3d57:	48 89 de             	mov    %rbx,%rsi
    3d5a:	e8 91 f8 ff ff       	callq  35f0 <sha256_transform>
    3d5f:	48 8d 7b 08          	lea    0x8(%rbx),%rdi
    3d63:	48 89 d9             	mov    %rbx,%rcx
    3d66:	31 c0                	xor    %eax,%eax
    3d68:	48 c7 03 00 00 00 00 	movq   $0x0,(%rbx)
    3d6f:	48 c7 43 30 00 00 00 	movq   $0x0,0x30(%rbx)
    3d76:	00 
    3d77:	48 83 e7 f8          	and    $0xfffffffffffffff8,%rdi
    3d7b:	48 29 f9             	sub    %rdi,%rcx
    3d7e:	83 c1 38             	add    $0x38,%ecx
    3d81:	c1 e9 03             	shr    $0x3,%ecx
    3d84:	f3 48 ab             	rep stos %rax,%es:(%rdi)
    3d87:	8b 4b 40             	mov    0x40(%rbx),%ecx
    3d8a:	e9 3f fe ff ff       	jmpq   3bce <sha256_final+0x3e>
    3d8f:	b9 37 00 00 00       	mov    $0x37,%ecx
    3d94:	e9 35 fe ff ff       	jmpq   3bce <sha256_final+0x3e>

0000000000003d99 <initialize_phases>:
    3d99:	48 83 ec 08          	sub    $0x8,%rsp
    3d9d:	b8 00 00 00 00       	mov    $0x0,%eax
    3da2:	e8 64 dd ff ff       	callq  1b0b <initialize_phase1>
    3da7:	b8 00 00 00 00       	mov    $0x0,%eax
    3dac:	e8 bc dd ff ff       	callq  1b6d <initialize_phase2>
    3db1:	b8 00 00 00 00       	mov    $0x0,%eax
    3db6:	e8 7c de ff ff       	callq  1c37 <initialize_phase3>
    3dbb:	b8 00 00 00 00       	mov    $0x0,%eax
    3dc0:	e8 44 e0 ff ff       	callq  1e09 <initialize_phase4>
    3dc5:	b8 00 00 00 00       	mov    $0x0,%eax
    3dca:	e8 dd e0 ff ff       	callq  1eac <initialize_phase5>
    3dcf:	b8 00 00 00 00       	mov    $0x0,%eax
    3dd4:	e8 3d e2 ff ff       	callq  2016 <initialize_phase6>
    3dd9:	b8 00 00 00 00       	mov    $0x0,%eax
    3dde:	e8 c6 e3 ff ff       	callq  21a9 <initialize_phase7>
    3de3:	48 83 c4 08          	add    $0x8,%rsp
    3de7:	c3                   	retq   

0000000000003de8 <secret_phase>:
    3de8:	48 83 ec 08          	sub    $0x8,%rsp
    3dec:	48 8d 35 dd 0e 00 00 	lea    0xedd(%rip),%rsi        # 4cd0 <k+0x130>
    3df3:	bf 01 00 00 00       	mov    $0x1,%edi
    3df8:	b8 00 00 00 00       	mov    $0x0,%eax
    3dfd:	e8 36 d8 ff ff       	callq  1638 <_init+0xe0>
    3e02:	48 8b 3d 37 22 20 00 	mov    0x202237(%rip),%rdi        # 206040 <__TMC_END__>
    3e09:	e8 0a d8 ff ff       	callq  1618 <_init+0xc0>
    3e0e:	b8 00 00 00 00       	mov    $0x0,%eax
    3e13:	e8 02 e7 ff ff       	callq  251a <read_line>
    3e18:	48 89 c7             	mov    %rax,%rdi
    3e1b:	b8 00 00 00 00       	mov    $0x0,%eax
    3e20:	e8 ae e3 ff ff       	callq  21d3 <phase7>
    3e25:	b8 00 00 00 00       	mov    $0x0,%eax
    3e2a:	e8 4d ea ff ff       	callq  287c <phase_defused>
    3e2f:	48 83 c4 08          	add    $0x8,%rsp
    3e33:	c3                   	retq   
    3e34:	66 2e 0f 1f 84 00 00 	nopw   %cs:0x0(%rax,%rax,1)
    3e3b:	00 00 00 
    3e3e:	66 90                	xchg   %ax,%ax

0000000000003e40 <__libc_csu_init>:
    3e40:	41 57                	push   %r15
    3e42:	41 56                	push   %r14
    3e44:	41 89 ff             	mov    %edi,%r15d
    3e47:	41 55                	push   %r13
    3e49:	41 54                	push   %r12
    3e4b:	4c 8d 25 56 1c 20 00 	lea    0x201c56(%rip),%r12        # 205aa8 <__frame_dummy_init_array_entry>
    3e52:	55                   	push   %rbp
    3e53:	48 8d 2d 56 1c 20 00 	lea    0x201c56(%rip),%rbp        # 205ab0 <__init_array_end>
    3e5a:	53                   	push   %rbx
    3e5b:	49 89 f6             	mov    %rsi,%r14
    3e5e:	49 89 d5             	mov    %rdx,%r13
    3e61:	4c 29 e5             	sub    %r12,%rbp
    3e64:	48 83 ec 08          	sub    $0x8,%rsp
    3e68:	48 c1 fd 03          	sar    $0x3,%rbp
    3e6c:	e8 e7 d6 ff ff       	callq  1558 <_init>
    3e71:	48 85 ed             	test   %rbp,%rbp
    3e74:	74 20                	je     3e96 <__libc_csu_init+0x56>
    3e76:	31 db                	xor    %ebx,%ebx
    3e78:	0f 1f 84 00 00 00 00 	nopl   0x0(%rax,%rax,1)
    3e7f:	00 
    3e80:	4c 89 ea             	mov    %r13,%rdx
    3e83:	4c 89 f6             	mov    %r14,%rsi
    3e86:	44 89 ff             	mov    %r15d,%edi
    3e89:	41 ff 14 dc          	callq  *(%r12,%rbx,8)
    3e8d:	48 83 c3 01          	add    $0x1,%rbx
    3e91:	48 39 dd             	cmp    %rbx,%rbp
    3e94:	75 ea                	jne    3e80 <__libc_csu_init+0x40>
    3e96:	48 83 c4 08          	add    $0x8,%rsp
    3e9a:	5b                   	pop    %rbx
    3e9b:	5d                   	pop    %rbp
    3e9c:	41 5c                	pop    %r12
    3e9e:	41 5d                	pop    %r13
    3ea0:	41 5e                	pop    %r14
    3ea2:	41 5f                	pop    %r15
    3ea4:	c3                   	retq   
    3ea5:	90                   	nop
    3ea6:	66 2e 0f 1f 84 00 00 	nopw   %cs:0x0(%rax,%rax,1)
    3ead:	00 00 00 

0000000000003eb0 <__libc_csu_fini>:
    3eb0:	f3 c3                	repz retq 

Disassembly of section .fini:

0000000000003eb4 <_fini>:
    3eb4:	48 83 ec 08          	sub    $0x8,%rsp
    3eb8:	48 83 c4 08          	add    $0x8,%rsp
    3ebc:	c3                   	retq   
